
Allocating common symbols
Common symbol       size              file

USBKeys_SentCLI     0x1               CMakeFiles/kiibohd.elf.dir/Output/pjrcUSB/output_com.c.o
CLIHexDebugMode     0x1               CMakeFiles/kiibohd.elf.dir/main.c.o
CLIHistoryCurrent   0x1               CMakeFiles/kiibohd.elf.dir/main.c.o
usb_rx_byte_count_data
                    0x14              CMakeFiles/kiibohd.elf.dir/Output/pjrcUSB/arm/usb_dev.c.o
USBInit_TimeEnd     0x4               CMakeFiles/kiibohd.elf.dir/Output/pjrcUSB/output_com.c.o
CLILEDState         0x1               CMakeFiles/kiibohd.elf.dir/main.c.o
CLIDictionariesUsed
                    0x1               CMakeFiles/kiibohd.elf.dir/main.c.o
Macro_rotationLayer
                    0x2               CMakeFiles/kiibohd.elf.dir/Macro/PartialMap/macro.c.o
CLIHistoryBuffer    0x3e8             CMakeFiles/kiibohd.elf.dir/main.c.o
USBKeys_SysCtrl     0x1               CMakeFiles/kiibohd.elf.dir/Output/pjrcUSB/output_com.c.o
Matrix_scanArray    0x1f8             CMakeFiles/kiibohd.elf.dir/Scan/MatrixARM/matrix_scan.c.o
CLILineBuffer       0x65              CMakeFiles/kiibohd.elf.dir/main.c.o
I2C_RxBufferPtr     0x12c             CMakeFiles/kiibohd.elf.dir/Scan/ISSILed/led_scan.c.o
macroTriggerListBuffer
                    0xd2              CMakeFiles/kiibohd.elf.dir/Macro/PartialMap/macro.c.o
macroResultMacroPendingList
                    0x31c             CMakeFiles/kiibohd.elf.dir/Macro/PartialMap/result.c.o
ResultMacroRecordList
                    0x129             CMakeFiles/kiibohd.elf.dir/Macro/PartialMap/macro.c.o
CLIHistoryHead      0x1               CMakeFiles/kiibohd.elf.dir/main.c.o
USBInit_Ticks       0x2               CMakeFiles/kiibohd.elf.dir/Output/pjrcUSB/output_com.c.o
LayerState          0x2               CMakeFiles/kiibohd.elf.dir/Macro/PartialMap/macro.c.o
USBKeys_Keys        0x1b              CMakeFiles/kiibohd.elf.dir/Output/pjrcUSB/output_com.c.o
USBKeys_Sent        0x1               CMakeFiles/kiibohd.elf.dir/Output/pjrcUSB/output_com.c.o
LED_pageBuffer      0x92              CMakeFiles/kiibohd.elf.dir/Scan/ISSILed/led_scan.c.o
macroTriggerListLayerCache
                    0x46              CMakeFiles/kiibohd.elf.dir/Macro/PartialMap/macro.c.o
I2C_TxBufferPtr     0x12c             CMakeFiles/kiibohd.elf.dir/Scan/ISSILed/led_scan.c.o
CLIDict             0x28              CMakeFiles/kiibohd.elf.dir/main.c.o
CLIHistoryTail      0x1               CMakeFiles/kiibohd.elf.dir/main.c.o
USBKeys_KeysCLI     0x1b              CMakeFiles/kiibohd.elf.dir/Output/pjrcUSB/output_com.c.o
CLIDictNames        0x28              CMakeFiles/kiibohd.elf.dir/main.c.o
USBInit_TimeStart   0x4               CMakeFiles/kiibohd.elf.dir/Output/pjrcUSB/output_com.c.o
CLILineBufferCurrent
                    0x1               CMakeFiles/kiibohd.elf.dir/main.c.o
USBKeys_ConsCtrl    0x2               CMakeFiles/kiibohd.elf.dir/Output/pjrcUSB/output_com.c.o
TriggerMacroRecordList
                    0xda              CMakeFiles/kiibohd.elf.dir/Macro/PartialMap/macro.c.o

Discarded input sections

 .group         0x0000000000000000        0x8 CMakeFiles/kiibohd.elf.dir/main.c.o
 .group         0x0000000000000000        0x8 CMakeFiles/kiibohd.elf.dir/main.c.o
 .group         0x0000000000000000        0x8 CMakeFiles/kiibohd.elf.dir/main.c.o
 .group         0x0000000000000000        0x8 CMakeFiles/kiibohd.elf.dir/main.c.o
 .group         0x0000000000000000        0x8 CMakeFiles/kiibohd.elf.dir/main.c.o
 .group         0x0000000000000000        0x8 CMakeFiles/kiibohd.elf.dir/main.c.o
 .group         0x0000000000000000        0x8 CMakeFiles/kiibohd.elf.dir/main.c.o
 .group         0x0000000000000000        0x8 CMakeFiles/kiibohd.elf.dir/main.c.o
 .group         0x0000000000000000        0x8 CMakeFiles/kiibohd.elf.dir/main.c.o
 .group         0x0000000000000000        0x8 CMakeFiles/kiibohd.elf.dir/main.c.o
 .group         0x0000000000000000        0x8 CMakeFiles/kiibohd.elf.dir/main.c.o
 .group         0x0000000000000000        0x8 CMakeFiles/kiibohd.elf.dir/main.c.o
 .group         0x0000000000000000        0x8 CMakeFiles/kiibohd.elf.dir/main.c.o
 .text          0x0000000000000000        0x0 CMakeFiles/kiibohd.elf.dir/main.c.o
 .data          0x0000000000000000        0x0 CMakeFiles/kiibohd.elf.dir/main.c.o
 .bss           0x0000000000000000        0x0 CMakeFiles/kiibohd.elf.dir/main.c.o
 .group         0x0000000000000000        0x8 CMakeFiles/kiibohd.elf.dir/Lib/mk20dx.c.o
 .group         0x0000000000000000        0x8 CMakeFiles/kiibohd.elf.dir/Lib/mk20dx.c.o
 .group         0x0000000000000000        0x8 CMakeFiles/kiibohd.elf.dir/Lib/mk20dx.c.o
 .group         0x0000000000000000        0x8 CMakeFiles/kiibohd.elf.dir/Lib/mk20dx.c.o
 .group         0x0000000000000000        0x8 CMakeFiles/kiibohd.elf.dir/Lib/mk20dx.c.o
 .group         0x0000000000000000        0x8 CMakeFiles/kiibohd.elf.dir/Lib/mk20dx.c.o
 .group         0x0000000000000000        0x8 CMakeFiles/kiibohd.elf.dir/Lib/mk20dx.c.o
 .group         0x0000000000000000        0x8 CMakeFiles/kiibohd.elf.dir/Lib/mk20dx.c.o
 .group         0x0000000000000000        0x8 CMakeFiles/kiibohd.elf.dir/Lib/mk20dx.c.o
 .group         0x0000000000000000        0x8 CMakeFiles/kiibohd.elf.dir/Lib/mk20dx.c.o
 .text          0x0000000000000000        0x0 CMakeFiles/kiibohd.elf.dir/Lib/mk20dx.c.o
 .data          0x0000000000000000        0x0 CMakeFiles/kiibohd.elf.dir/Lib/mk20dx.c.o
 .bss           0x0000000000000000        0x0 CMakeFiles/kiibohd.elf.dir/Lib/mk20dx.c.o
 .text.memcmp   0x0000000000000000       0x1e CMakeFiles/kiibohd.elf.dir/Lib/mk20dx.c.o
 .text._sbrk    0x0000000000000000       0x10 CMakeFiles/kiibohd.elf.dir/Lib/mk20dx.c.o
 .text.nvic_execution_priority
                0x0000000000000000       0x3c CMakeFiles/kiibohd.elf.dir/Lib/mk20dx.c.o
 .data.__brkval
                0x0000000000000000        0x4 CMakeFiles/kiibohd.elf.dir/Lib/mk20dx.c.o
 .debug_macro   0x0000000000000000      0x886 CMakeFiles/kiibohd.elf.dir/Lib/mk20dx.c.o
 .debug_macro   0x0000000000000000       0x22 CMakeFiles/kiibohd.elf.dir/Lib/mk20dx.c.o
 .debug_macro   0x0000000000000000       0x44 CMakeFiles/kiibohd.elf.dir/Lib/mk20dx.c.o
 .debug_macro   0x0000000000000000       0xe3 CMakeFiles/kiibohd.elf.dir/Lib/mk20dx.c.o
 .debug_macro   0x0000000000000000       0x22 CMakeFiles/kiibohd.elf.dir/Lib/mk20dx.c.o
 .debug_macro   0x0000000000000000      0x1df CMakeFiles/kiibohd.elf.dir/Lib/mk20dx.c.o
 .debug_macro   0x0000000000000000       0x7c CMakeFiles/kiibohd.elf.dir/Lib/mk20dx.c.o
 .debug_macro   0x0000000000000000       0x10 CMakeFiles/kiibohd.elf.dir/Lib/mk20dx.c.o
 .debug_macro   0x0000000000000000       0x9a CMakeFiles/kiibohd.elf.dir/Lib/mk20dx.c.o
 .group         0x0000000000000000        0x8 CMakeFiles/kiibohd.elf.dir/Lib/delay.c.o
 .group         0x0000000000000000        0x8 CMakeFiles/kiibohd.elf.dir/Lib/delay.c.o
 .group         0x0000000000000000        0x8 CMakeFiles/kiibohd.elf.dir/Lib/delay.c.o
 .group         0x0000000000000000        0x8 CMakeFiles/kiibohd.elf.dir/Lib/delay.c.o
 .group         0x0000000000000000        0x8 CMakeFiles/kiibohd.elf.dir/Lib/delay.c.o
 .group         0x0000000000000000        0x8 CMakeFiles/kiibohd.elf.dir/Lib/delay.c.o
 .group         0x0000000000000000        0x8 CMakeFiles/kiibohd.elf.dir/Lib/delay.c.o
 .group         0x0000000000000000        0x8 CMakeFiles/kiibohd.elf.dir/Lib/delay.c.o
 .text          0x0000000000000000        0x0 CMakeFiles/kiibohd.elf.dir/Lib/delay.c.o
 .data          0x0000000000000000        0x0 CMakeFiles/kiibohd.elf.dir/Lib/delay.c.o
 .bss           0x0000000000000000        0x0 CMakeFiles/kiibohd.elf.dir/Lib/delay.c.o
 .debug_macro   0x0000000000000000      0x886 CMakeFiles/kiibohd.elf.dir/Lib/delay.c.o
 .debug_macro   0x0000000000000000       0x22 CMakeFiles/kiibohd.elf.dir/Lib/delay.c.o
 .debug_macro   0x0000000000000000       0x44 CMakeFiles/kiibohd.elf.dir/Lib/delay.c.o
 .debug_macro   0x0000000000000000       0xe3 CMakeFiles/kiibohd.elf.dir/Lib/delay.c.o
 .debug_macro   0x0000000000000000       0x22 CMakeFiles/kiibohd.elf.dir/Lib/delay.c.o
 .debug_macro   0x0000000000000000      0x1df CMakeFiles/kiibohd.elf.dir/Lib/delay.c.o
 .debug_macro   0x0000000000000000     0x3030 CMakeFiles/kiibohd.elf.dir/Lib/delay.c.o
 .group         0x0000000000000000        0x8 CMakeFiles/kiibohd.elf.dir/Scan/ISSILed/led_scan.c.o
 .group         0x0000000000000000        0x8 CMakeFiles/kiibohd.elf.dir/Scan/ISSILed/led_scan.c.o
 .group         0x0000000000000000        0x8 CMakeFiles/kiibohd.elf.dir/Scan/ISSILed/led_scan.c.o
 .group         0x0000000000000000        0x8 CMakeFiles/kiibohd.elf.dir/Scan/ISSILed/led_scan.c.o
 .group         0x0000000000000000        0x8 CMakeFiles/kiibohd.elf.dir/Scan/ISSILed/led_scan.c.o
 .group         0x0000000000000000        0x8 CMakeFiles/kiibohd.elf.dir/Scan/ISSILed/led_scan.c.o
 .group         0x0000000000000000        0x8 CMakeFiles/kiibohd.elf.dir/Scan/ISSILed/led_scan.c.o
 .group         0x0000000000000000        0x8 CMakeFiles/kiibohd.elf.dir/Scan/ISSILed/led_scan.c.o
 .group         0x0000000000000000        0x8 CMakeFiles/kiibohd.elf.dir/Scan/ISSILed/led_scan.c.o
 .group         0x0000000000000000        0x8 CMakeFiles/kiibohd.elf.dir/Scan/ISSILed/led_scan.c.o
 .group         0x0000000000000000        0x8 CMakeFiles/kiibohd.elf.dir/Scan/ISSILed/led_scan.c.o
 .group         0x0000000000000000        0x8 CMakeFiles/kiibohd.elf.dir/Scan/ISSILed/led_scan.c.o
 .group         0x0000000000000000        0x8 CMakeFiles/kiibohd.elf.dir/Scan/ISSILed/led_scan.c.o
 .group         0x0000000000000000        0x8 CMakeFiles/kiibohd.elf.dir/Scan/ISSILed/led_scan.c.o
 .group         0x0000000000000000        0x8 CMakeFiles/kiibohd.elf.dir/Scan/ISSILed/led_scan.c.o
 .group         0x0000000000000000        0x8 CMakeFiles/kiibohd.elf.dir/Scan/ISSILed/led_scan.c.o
 .group         0x0000000000000000        0x8 CMakeFiles/kiibohd.elf.dir/Scan/ISSILed/led_scan.c.o
 .text          0x0000000000000000        0x0 CMakeFiles/kiibohd.elf.dir/Scan/ISSILed/led_scan.c.o
 .data          0x0000000000000000        0x0 CMakeFiles/kiibohd.elf.dir/Scan/ISSILed/led_scan.c.o
 .bss           0x0000000000000000        0x0 CMakeFiles/kiibohd.elf.dir/Scan/ISSILed/led_scan.c.o
 .debug_macro   0x0000000000000000      0x886 CMakeFiles/kiibohd.elf.dir/Scan/ISSILed/led_scan.c.o
 .debug_macro   0x0000000000000000       0x16 CMakeFiles/kiibohd.elf.dir/Scan/ISSILed/led_scan.c.o
 .debug_macro   0x0000000000000000       0x22 CMakeFiles/kiibohd.elf.dir/Scan/ISSILed/led_scan.c.o
 .debug_macro   0x0000000000000000       0x44 CMakeFiles/kiibohd.elf.dir/Scan/ISSILed/led_scan.c.o
 .debug_macro   0x0000000000000000       0xe3 CMakeFiles/kiibohd.elf.dir/Scan/ISSILed/led_scan.c.o
 .debug_macro   0x0000000000000000       0x22 CMakeFiles/kiibohd.elf.dir/Scan/ISSILed/led_scan.c.o
 .debug_macro   0x0000000000000000      0x1df CMakeFiles/kiibohd.elf.dir/Scan/ISSILed/led_scan.c.o
 .debug_macro   0x0000000000000000     0x301e CMakeFiles/kiibohd.elf.dir/Scan/ISSILed/led_scan.c.o
 .debug_macro   0x0000000000000000       0x10 CMakeFiles/kiibohd.elf.dir/Scan/ISSILed/led_scan.c.o
 .debug_macro   0x0000000000000000       0x10 CMakeFiles/kiibohd.elf.dir/Scan/ISSILed/led_scan.c.o
 .debug_macro   0x0000000000000000       0x10 CMakeFiles/kiibohd.elf.dir/Scan/ISSILed/led_scan.c.o
 .debug_macro   0x0000000000000000       0x3a CMakeFiles/kiibohd.elf.dir/Scan/ISSILed/led_scan.c.o
 .debug_macro   0x0000000000000000       0x9a CMakeFiles/kiibohd.elf.dir/Scan/ISSILed/led_scan.c.o
 .group         0x0000000000000000        0x8 CMakeFiles/kiibohd.elf.dir/Scan/MatrixARM/matrix_scan.c.o
 .group         0x0000000000000000        0x8 CMakeFiles/kiibohd.elf.dir/Scan/MatrixARM/matrix_scan.c.o
 .group         0x0000000000000000        0x8 CMakeFiles/kiibohd.elf.dir/Scan/MatrixARM/matrix_scan.c.o
 .group         0x0000000000000000        0x8 CMakeFiles/kiibohd.elf.dir/Scan/MatrixARM/matrix_scan.c.o
 .group         0x0000000000000000        0x8 CMakeFiles/kiibohd.elf.dir/Scan/MatrixARM/matrix_scan.c.o
 .group         0x0000000000000000        0x8 CMakeFiles/kiibohd.elf.dir/Scan/MatrixARM/matrix_scan.c.o
 .group         0x0000000000000000        0x8 CMakeFiles/kiibohd.elf.dir/Scan/MatrixARM/matrix_scan.c.o
 .group         0x0000000000000000        0x8 CMakeFiles/kiibohd.elf.dir/Scan/MatrixARM/matrix_scan.c.o
 .group         0x0000000000000000        0x8 CMakeFiles/kiibohd.elf.dir/Scan/MatrixARM/matrix_scan.c.o
 .group         0x0000000000000000        0x8 CMakeFiles/kiibohd.elf.dir/Scan/MatrixARM/matrix_scan.c.o
 .group         0x0000000000000000        0x8 CMakeFiles/kiibohd.elf.dir/Scan/MatrixARM/matrix_scan.c.o
 .group         0x0000000000000000        0x8 CMakeFiles/kiibohd.elf.dir/Scan/MatrixARM/matrix_scan.c.o
 .group         0x0000000000000000        0x8 CMakeFiles/kiibohd.elf.dir/Scan/MatrixARM/matrix_scan.c.o
 .group         0x0000000000000000        0x8 CMakeFiles/kiibohd.elf.dir/Scan/MatrixARM/matrix_scan.c.o
 .group         0x0000000000000000        0x8 CMakeFiles/kiibohd.elf.dir/Scan/MatrixARM/matrix_scan.c.o
 .group         0x0000000000000000        0x8 CMakeFiles/kiibohd.elf.dir/Scan/MatrixARM/matrix_scan.c.o
 .text          0x0000000000000000        0x0 CMakeFiles/kiibohd.elf.dir/Scan/MatrixARM/matrix_scan.c.o
 .data          0x0000000000000000        0x0 CMakeFiles/kiibohd.elf.dir/Scan/MatrixARM/matrix_scan.c.o
 .bss           0x0000000000000000        0x0 CMakeFiles/kiibohd.elf.dir/Scan/MatrixARM/matrix_scan.c.o
 .debug_macro   0x0000000000000000      0x886 CMakeFiles/kiibohd.elf.dir/Scan/MatrixARM/matrix_scan.c.o
 .debug_macro   0x0000000000000000       0x16 CMakeFiles/kiibohd.elf.dir/Scan/MatrixARM/matrix_scan.c.o
 .debug_macro   0x0000000000000000       0x22 CMakeFiles/kiibohd.elf.dir/Scan/MatrixARM/matrix_scan.c.o
 .debug_macro   0x0000000000000000       0x44 CMakeFiles/kiibohd.elf.dir/Scan/MatrixARM/matrix_scan.c.o
 .debug_macro   0x0000000000000000       0xe3 CMakeFiles/kiibohd.elf.dir/Scan/MatrixARM/matrix_scan.c.o
 .debug_macro   0x0000000000000000       0x22 CMakeFiles/kiibohd.elf.dir/Scan/MatrixARM/matrix_scan.c.o
 .debug_macro   0x0000000000000000      0x1df CMakeFiles/kiibohd.elf.dir/Scan/MatrixARM/matrix_scan.c.o
 .debug_macro   0x0000000000000000     0x301e CMakeFiles/kiibohd.elf.dir/Scan/MatrixARM/matrix_scan.c.o
 .debug_macro   0x0000000000000000       0x10 CMakeFiles/kiibohd.elf.dir/Scan/MatrixARM/matrix_scan.c.o
 .debug_macro   0x0000000000000000       0x10 CMakeFiles/kiibohd.elf.dir/Scan/MatrixARM/matrix_scan.c.o
 .debug_macro   0x0000000000000000       0x7c CMakeFiles/kiibohd.elf.dir/Scan/MatrixARM/matrix_scan.c.o
 .debug_macro   0x0000000000000000       0x10 CMakeFiles/kiibohd.elf.dir/Scan/MatrixARM/matrix_scan.c.o
 .debug_macro   0x0000000000000000       0x3a CMakeFiles/kiibohd.elf.dir/Scan/MatrixARM/matrix_scan.c.o
 .debug_macro   0x0000000000000000       0xa2 CMakeFiles/kiibohd.elf.dir/Scan/MatrixARM/matrix_scan.c.o
 .debug_macro   0x0000000000000000       0x9a CMakeFiles/kiibohd.elf.dir/Scan/MatrixARM/matrix_scan.c.o
 .group         0x0000000000000000        0x8 CMakeFiles/kiibohd.elf.dir/Scan/WhiteFox/scan_loop.c.o
 .group         0x0000000000000000        0x8 CMakeFiles/kiibohd.elf.dir/Scan/WhiteFox/scan_loop.c.o
 .group         0x0000000000000000        0x8 CMakeFiles/kiibohd.elf.dir/Scan/WhiteFox/scan_loop.c.o
 .group         0x0000000000000000        0x8 CMakeFiles/kiibohd.elf.dir/Scan/WhiteFox/scan_loop.c.o
 .group         0x0000000000000000        0x8 CMakeFiles/kiibohd.elf.dir/Scan/WhiteFox/scan_loop.c.o
 .group         0x0000000000000000        0x8 CMakeFiles/kiibohd.elf.dir/Scan/WhiteFox/scan_loop.c.o
 .group         0x0000000000000000        0x8 CMakeFiles/kiibohd.elf.dir/Scan/WhiteFox/scan_loop.c.o
 .group         0x0000000000000000        0x8 CMakeFiles/kiibohd.elf.dir/Scan/WhiteFox/scan_loop.c.o
 .group         0x0000000000000000        0x8 CMakeFiles/kiibohd.elf.dir/Scan/WhiteFox/scan_loop.c.o
 .group         0x0000000000000000        0x8 CMakeFiles/kiibohd.elf.dir/Scan/WhiteFox/scan_loop.c.o
 .group         0x0000000000000000        0x8 CMakeFiles/kiibohd.elf.dir/Scan/WhiteFox/scan_loop.c.o
 .group         0x0000000000000000        0x8 CMakeFiles/kiibohd.elf.dir/Scan/WhiteFox/scan_loop.c.o
 .group         0x0000000000000000        0x8 CMakeFiles/kiibohd.elf.dir/Scan/WhiteFox/scan_loop.c.o
 .group         0x0000000000000000        0x8 CMakeFiles/kiibohd.elf.dir/Scan/WhiteFox/scan_loop.c.o
 .group         0x0000000000000000        0x8 CMakeFiles/kiibohd.elf.dir/Scan/WhiteFox/scan_loop.c.o
 .text          0x0000000000000000        0x0 CMakeFiles/kiibohd.elf.dir/Scan/WhiteFox/scan_loop.c.o
 .data          0x0000000000000000        0x0 CMakeFiles/kiibohd.elf.dir/Scan/WhiteFox/scan_loop.c.o
 .bss           0x0000000000000000        0x0 CMakeFiles/kiibohd.elf.dir/Scan/WhiteFox/scan_loop.c.o
 .debug_macro   0x0000000000000000      0x886 CMakeFiles/kiibohd.elf.dir/Scan/WhiteFox/scan_loop.c.o
 .debug_macro   0x0000000000000000       0x16 CMakeFiles/kiibohd.elf.dir/Scan/WhiteFox/scan_loop.c.o
 .debug_macro   0x0000000000000000       0x22 CMakeFiles/kiibohd.elf.dir/Scan/WhiteFox/scan_loop.c.o
 .debug_macro   0x0000000000000000       0x44 CMakeFiles/kiibohd.elf.dir/Scan/WhiteFox/scan_loop.c.o
 .debug_macro   0x0000000000000000       0xe3 CMakeFiles/kiibohd.elf.dir/Scan/WhiteFox/scan_loop.c.o
 .debug_macro   0x0000000000000000       0x22 CMakeFiles/kiibohd.elf.dir/Scan/WhiteFox/scan_loop.c.o
 .debug_macro   0x0000000000000000      0x1df CMakeFiles/kiibohd.elf.dir/Scan/WhiteFox/scan_loop.c.o
 .debug_macro   0x0000000000000000     0x301e CMakeFiles/kiibohd.elf.dir/Scan/WhiteFox/scan_loop.c.o
 .debug_macro   0x0000000000000000       0x10 CMakeFiles/kiibohd.elf.dir/Scan/WhiteFox/scan_loop.c.o
 .debug_macro   0x0000000000000000       0x10 CMakeFiles/kiibohd.elf.dir/Scan/WhiteFox/scan_loop.c.o
 .debug_macro   0x0000000000000000       0x7c CMakeFiles/kiibohd.elf.dir/Scan/WhiteFox/scan_loop.c.o
 .debug_macro   0x0000000000000000       0x10 CMakeFiles/kiibohd.elf.dir/Scan/WhiteFox/scan_loop.c.o
 .debug_macro   0x0000000000000000       0x3a CMakeFiles/kiibohd.elf.dir/Scan/WhiteFox/scan_loop.c.o
 .debug_macro   0x0000000000000000       0x9a CMakeFiles/kiibohd.elf.dir/Scan/WhiteFox/scan_loop.c.o
 .group         0x0000000000000000        0x8 CMakeFiles/kiibohd.elf.dir/Macro/PartialMap/macro.c.o
 .group         0x0000000000000000        0x8 CMakeFiles/kiibohd.elf.dir/Macro/PartialMap/macro.c.o
 .group         0x0000000000000000        0x8 CMakeFiles/kiibohd.elf.dir/Macro/PartialMap/macro.c.o
 .group         0x0000000000000000        0x8 CMakeFiles/kiibohd.elf.dir/Macro/PartialMap/macro.c.o
 .group         0x0000000000000000        0x8 CMakeFiles/kiibohd.elf.dir/Macro/PartialMap/macro.c.o
 .group         0x0000000000000000        0x8 CMakeFiles/kiibohd.elf.dir/Macro/PartialMap/macro.c.o
 .group         0x0000000000000000        0x8 CMakeFiles/kiibohd.elf.dir/Macro/PartialMap/macro.c.o
 .group         0x0000000000000000        0x8 CMakeFiles/kiibohd.elf.dir/Macro/PartialMap/macro.c.o
 .group         0x0000000000000000        0x8 CMakeFiles/kiibohd.elf.dir/Macro/PartialMap/macro.c.o
 .group         0x0000000000000000        0x8 CMakeFiles/kiibohd.elf.dir/Macro/PartialMap/macro.c.o
 .group         0x0000000000000000        0x8 CMakeFiles/kiibohd.elf.dir/Macro/PartialMap/macro.c.o
 .group         0x0000000000000000        0x8 CMakeFiles/kiibohd.elf.dir/Macro/PartialMap/macro.c.o
 .group         0x0000000000000000        0x8 CMakeFiles/kiibohd.elf.dir/Macro/PartialMap/macro.c.o
 .group         0x0000000000000000        0x8 CMakeFiles/kiibohd.elf.dir/Macro/PartialMap/macro.c.o
 .group         0x0000000000000000        0x8 CMakeFiles/kiibohd.elf.dir/Macro/PartialMap/macro.c.o
 .group         0x0000000000000000        0x8 CMakeFiles/kiibohd.elf.dir/Macro/PartialMap/macro.c.o
 .group         0x0000000000000000        0x8 CMakeFiles/kiibohd.elf.dir/Macro/PartialMap/macro.c.o
 .text          0x0000000000000000        0x0 CMakeFiles/kiibohd.elf.dir/Macro/PartialMap/macro.c.o
 .data          0x0000000000000000        0x0 CMakeFiles/kiibohd.elf.dir/Macro/PartialMap/macro.c.o
 .bss           0x0000000000000000        0x0 CMakeFiles/kiibohd.elf.dir/Macro/PartialMap/macro.c.o
 .text.Macro_layerState
                0x0000000000000000        0xe CMakeFiles/kiibohd.elf.dir/Macro/PartialMap/macro.c.o
 .text.Macro_analogState
                0x0000000000000000       0x4c CMakeFiles/kiibohd.elf.dir/Macro/PartialMap/macro.c.o
 .text.Macro_ledState
                0x0000000000000000       0x28 CMakeFiles/kiibohd.elf.dir/Macro/PartialMap/macro.c.o
 .rodata.InterconnectOffsetList
                0x0000000000000000        0x1 CMakeFiles/kiibohd.elf.dir/Macro/PartialMap/macro.c.o
 .debug_macro   0x0000000000000000      0x886 CMakeFiles/kiibohd.elf.dir/Macro/PartialMap/macro.c.o
 .debug_macro   0x0000000000000000       0x16 CMakeFiles/kiibohd.elf.dir/Macro/PartialMap/macro.c.o
 .debug_macro   0x0000000000000000       0x22 CMakeFiles/kiibohd.elf.dir/Macro/PartialMap/macro.c.o
 .debug_macro   0x0000000000000000       0x44 CMakeFiles/kiibohd.elf.dir/Macro/PartialMap/macro.c.o
 .debug_macro   0x0000000000000000       0xe3 CMakeFiles/kiibohd.elf.dir/Macro/PartialMap/macro.c.o
 .debug_macro   0x0000000000000000       0x22 CMakeFiles/kiibohd.elf.dir/Macro/PartialMap/macro.c.o
 .debug_macro   0x0000000000000000      0x1df CMakeFiles/kiibohd.elf.dir/Macro/PartialMap/macro.c.o
 .debug_macro   0x0000000000000000     0x301e CMakeFiles/kiibohd.elf.dir/Macro/PartialMap/macro.c.o
 .debug_macro   0x0000000000000000       0x10 CMakeFiles/kiibohd.elf.dir/Macro/PartialMap/macro.c.o
 .debug_macro   0x0000000000000000       0x10 CMakeFiles/kiibohd.elf.dir/Macro/PartialMap/macro.c.o
 .debug_macro   0x0000000000000000       0x7c CMakeFiles/kiibohd.elf.dir/Macro/PartialMap/macro.c.o
 .debug_macro   0x0000000000000000       0x10 CMakeFiles/kiibohd.elf.dir/Macro/PartialMap/macro.c.o
 .debug_macro   0x0000000000000000       0x3a CMakeFiles/kiibohd.elf.dir/Macro/PartialMap/macro.c.o
 .debug_macro   0x0000000000000000       0x9a CMakeFiles/kiibohd.elf.dir/Macro/PartialMap/macro.c.o
 .debug_macro   0x0000000000000000     0x1217 CMakeFiles/kiibohd.elf.dir/Macro/PartialMap/macro.c.o
 .debug_macro   0x0000000000000000       0xa2 CMakeFiles/kiibohd.elf.dir/Macro/PartialMap/macro.c.o
 .debug_macro   0x0000000000000000       0x57 CMakeFiles/kiibohd.elf.dir/Macro/PartialMap/macro.c.o
 .group         0x0000000000000000        0x8 CMakeFiles/kiibohd.elf.dir/Macro/PartialMap/result.c.o
 .group         0x0000000000000000        0x8 CMakeFiles/kiibohd.elf.dir/Macro/PartialMap/result.c.o
 .group         0x0000000000000000        0x8 CMakeFiles/kiibohd.elf.dir/Macro/PartialMap/result.c.o
 .group         0x0000000000000000        0x8 CMakeFiles/kiibohd.elf.dir/Macro/PartialMap/result.c.o
 .group         0x0000000000000000        0x8 CMakeFiles/kiibohd.elf.dir/Macro/PartialMap/result.c.o
 .group         0x0000000000000000        0x8 CMakeFiles/kiibohd.elf.dir/Macro/PartialMap/result.c.o
 .group         0x0000000000000000        0x8 CMakeFiles/kiibohd.elf.dir/Macro/PartialMap/result.c.o
 .group         0x0000000000000000        0x8 CMakeFiles/kiibohd.elf.dir/Macro/PartialMap/result.c.o
 .group         0x0000000000000000        0x8 CMakeFiles/kiibohd.elf.dir/Macro/PartialMap/result.c.o
 .group         0x0000000000000000        0x8 CMakeFiles/kiibohd.elf.dir/Macro/PartialMap/result.c.o
 .group         0x0000000000000000        0x8 CMakeFiles/kiibohd.elf.dir/Macro/PartialMap/result.c.o
 .group         0x0000000000000000        0x8 CMakeFiles/kiibohd.elf.dir/Macro/PartialMap/result.c.o
 .group         0x0000000000000000        0x8 CMakeFiles/kiibohd.elf.dir/Macro/PartialMap/result.c.o
 .group         0x0000000000000000        0x8 CMakeFiles/kiibohd.elf.dir/Macro/PartialMap/result.c.o
 .group         0x0000000000000000        0x8 CMakeFiles/kiibohd.elf.dir/Macro/PartialMap/result.c.o
 .group         0x0000000000000000        0x8 CMakeFiles/kiibohd.elf.dir/Macro/PartialMap/result.c.o
 .text          0x0000000000000000        0x0 CMakeFiles/kiibohd.elf.dir/Macro/PartialMap/result.c.o
 .data          0x0000000000000000        0x0 CMakeFiles/kiibohd.elf.dir/Macro/PartialMap/result.c.o
 .bss           0x0000000000000000        0x0 CMakeFiles/kiibohd.elf.dir/Macro/PartialMap/result.c.o
 .text.Result_add
                0x0000000000000000        0x2 CMakeFiles/kiibohd.elf.dir/Macro/PartialMap/result.c.o
 .debug_macro   0x0000000000000000      0x886 CMakeFiles/kiibohd.elf.dir/Macro/PartialMap/result.c.o
 .debug_macro   0x0000000000000000       0x16 CMakeFiles/kiibohd.elf.dir/Macro/PartialMap/result.c.o
 .debug_macro   0x0000000000000000       0x22 CMakeFiles/kiibohd.elf.dir/Macro/PartialMap/result.c.o
 .debug_macro   0x0000000000000000       0x44 CMakeFiles/kiibohd.elf.dir/Macro/PartialMap/result.c.o
 .debug_macro   0x0000000000000000       0xe3 CMakeFiles/kiibohd.elf.dir/Macro/PartialMap/result.c.o
 .debug_macro   0x0000000000000000       0x22 CMakeFiles/kiibohd.elf.dir/Macro/PartialMap/result.c.o
 .debug_macro   0x0000000000000000      0x1df CMakeFiles/kiibohd.elf.dir/Macro/PartialMap/result.c.o
 .debug_macro   0x0000000000000000     0x301e CMakeFiles/kiibohd.elf.dir/Macro/PartialMap/result.c.o
 .debug_macro   0x0000000000000000       0x10 CMakeFiles/kiibohd.elf.dir/Macro/PartialMap/result.c.o
 .debug_macro   0x0000000000000000       0x10 CMakeFiles/kiibohd.elf.dir/Macro/PartialMap/result.c.o
 .debug_macro   0x0000000000000000       0x7c CMakeFiles/kiibohd.elf.dir/Macro/PartialMap/result.c.o
 .debug_macro   0x0000000000000000       0x10 CMakeFiles/kiibohd.elf.dir/Macro/PartialMap/result.c.o
 .debug_macro   0x0000000000000000       0x9a CMakeFiles/kiibohd.elf.dir/Macro/PartialMap/result.c.o
 .debug_macro   0x0000000000000000       0xa2 CMakeFiles/kiibohd.elf.dir/Macro/PartialMap/result.c.o
 .debug_macro   0x0000000000000000     0x1217 CMakeFiles/kiibohd.elf.dir/Macro/PartialMap/result.c.o
 .debug_macro   0x0000000000000000       0x57 CMakeFiles/kiibohd.elf.dir/Macro/PartialMap/result.c.o
 .group         0x0000000000000000        0x8 CMakeFiles/kiibohd.elf.dir/Macro/PartialMap/trigger.c.o
 .group         0x0000000000000000        0x8 CMakeFiles/kiibohd.elf.dir/Macro/PartialMap/trigger.c.o
 .group         0x0000000000000000        0x8 CMakeFiles/kiibohd.elf.dir/Macro/PartialMap/trigger.c.o
 .group         0x0000000000000000        0x8 CMakeFiles/kiibohd.elf.dir/Macro/PartialMap/trigger.c.o
 .group         0x0000000000000000        0x8 CMakeFiles/kiibohd.elf.dir/Macro/PartialMap/trigger.c.o
 .group         0x0000000000000000        0x8 CMakeFiles/kiibohd.elf.dir/Macro/PartialMap/trigger.c.o
 .group         0x0000000000000000        0x8 CMakeFiles/kiibohd.elf.dir/Macro/PartialMap/trigger.c.o
 .group         0x0000000000000000        0x8 CMakeFiles/kiibohd.elf.dir/Macro/PartialMap/trigger.c.o
 .group         0x0000000000000000        0x8 CMakeFiles/kiibohd.elf.dir/Macro/PartialMap/trigger.c.o
 .group         0x0000000000000000        0x8 CMakeFiles/kiibohd.elf.dir/Macro/PartialMap/trigger.c.o
 .group         0x0000000000000000        0x8 CMakeFiles/kiibohd.elf.dir/Macro/PartialMap/trigger.c.o
 .group         0x0000000000000000        0x8 CMakeFiles/kiibohd.elf.dir/Macro/PartialMap/trigger.c.o
 .group         0x0000000000000000        0x8 CMakeFiles/kiibohd.elf.dir/Macro/PartialMap/trigger.c.o
 .group         0x0000000000000000        0x8 CMakeFiles/kiibohd.elf.dir/Macro/PartialMap/trigger.c.o
 .group         0x0000000000000000        0x8 CMakeFiles/kiibohd.elf.dir/Macro/PartialMap/trigger.c.o
 .group         0x0000000000000000        0x8 CMakeFiles/kiibohd.elf.dir/Macro/PartialMap/trigger.c.o
 .text          0x0000000000000000        0x0 CMakeFiles/kiibohd.elf.dir/Macro/PartialMap/trigger.c.o
 .data          0x0000000000000000        0x0 CMakeFiles/kiibohd.elf.dir/Macro/PartialMap/trigger.c.o
 .bss           0x0000000000000000        0x0 CMakeFiles/kiibohd.elf.dir/Macro/PartialMap/trigger.c.o
 .text.Trigger_state
                0x0000000000000000        0x2 CMakeFiles/kiibohd.elf.dir/Macro/PartialMap/trigger.c.o
 .text.Trigger_update
                0x0000000000000000        0x4 CMakeFiles/kiibohd.elf.dir/Macro/PartialMap/trigger.c.o
 .debug_macro   0x0000000000000000      0x886 CMakeFiles/kiibohd.elf.dir/Macro/PartialMap/trigger.c.o
 .debug_macro   0x0000000000000000       0x16 CMakeFiles/kiibohd.elf.dir/Macro/PartialMap/trigger.c.o
 .debug_macro   0x0000000000000000       0x22 CMakeFiles/kiibohd.elf.dir/Macro/PartialMap/trigger.c.o
 .debug_macro   0x0000000000000000       0x44 CMakeFiles/kiibohd.elf.dir/Macro/PartialMap/trigger.c.o
 .debug_macro   0x0000000000000000       0xe3 CMakeFiles/kiibohd.elf.dir/Macro/PartialMap/trigger.c.o
 .debug_macro   0x0000000000000000       0x22 CMakeFiles/kiibohd.elf.dir/Macro/PartialMap/trigger.c.o
 .debug_macro   0x0000000000000000      0x1df CMakeFiles/kiibohd.elf.dir/Macro/PartialMap/trigger.c.o
 .debug_macro   0x0000000000000000     0x301e CMakeFiles/kiibohd.elf.dir/Macro/PartialMap/trigger.c.o
 .debug_macro   0x0000000000000000       0x10 CMakeFiles/kiibohd.elf.dir/Macro/PartialMap/trigger.c.o
 .debug_macro   0x0000000000000000       0x10 CMakeFiles/kiibohd.elf.dir/Macro/PartialMap/trigger.c.o
 .debug_macro   0x0000000000000000       0x7c CMakeFiles/kiibohd.elf.dir/Macro/PartialMap/trigger.c.o
 .debug_macro   0x0000000000000000       0x10 CMakeFiles/kiibohd.elf.dir/Macro/PartialMap/trigger.c.o
 .debug_macro   0x0000000000000000       0x9a CMakeFiles/kiibohd.elf.dir/Macro/PartialMap/trigger.c.o
 .debug_macro   0x0000000000000000       0xa2 CMakeFiles/kiibohd.elf.dir/Macro/PartialMap/trigger.c.o
 .debug_macro   0x0000000000000000     0x1217 CMakeFiles/kiibohd.elf.dir/Macro/PartialMap/trigger.c.o
 .debug_macro   0x0000000000000000       0x57 CMakeFiles/kiibohd.elf.dir/Macro/PartialMap/trigger.c.o
 .group         0x0000000000000000        0x8 CMakeFiles/kiibohd.elf.dir/Output/pjrcUSB/output_com.c.o
 .group         0x0000000000000000        0x8 CMakeFiles/kiibohd.elf.dir/Output/pjrcUSB/output_com.c.o
 .group         0x0000000000000000        0x8 CMakeFiles/kiibohd.elf.dir/Output/pjrcUSB/output_com.c.o
 .group         0x0000000000000000        0x8 CMakeFiles/kiibohd.elf.dir/Output/pjrcUSB/output_com.c.o
 .group         0x0000000000000000        0x8 CMakeFiles/kiibohd.elf.dir/Output/pjrcUSB/output_com.c.o
 .group         0x0000000000000000        0x8 CMakeFiles/kiibohd.elf.dir/Output/pjrcUSB/output_com.c.o
 .group         0x0000000000000000        0x8 CMakeFiles/kiibohd.elf.dir/Output/pjrcUSB/output_com.c.o
 .group         0x0000000000000000        0x8 CMakeFiles/kiibohd.elf.dir/Output/pjrcUSB/output_com.c.o
 .group         0x0000000000000000        0x8 CMakeFiles/kiibohd.elf.dir/Output/pjrcUSB/output_com.c.o
 .group         0x0000000000000000        0x8 CMakeFiles/kiibohd.elf.dir/Output/pjrcUSB/output_com.c.o
 .group         0x0000000000000000        0x8 CMakeFiles/kiibohd.elf.dir/Output/pjrcUSB/output_com.c.o
 .group         0x0000000000000000        0x8 CMakeFiles/kiibohd.elf.dir/Output/pjrcUSB/output_com.c.o
 .group         0x0000000000000000        0x8 CMakeFiles/kiibohd.elf.dir/Output/pjrcUSB/output_com.c.o
 .group         0x0000000000000000        0x8 CMakeFiles/kiibohd.elf.dir/Output/pjrcUSB/output_com.c.o
 .group         0x0000000000000000        0x8 CMakeFiles/kiibohd.elf.dir/Output/pjrcUSB/output_com.c.o
 .group         0x0000000000000000        0x8 CMakeFiles/kiibohd.elf.dir/Output/pjrcUSB/output_com.c.o
 .group         0x0000000000000000        0x8 CMakeFiles/kiibohd.elf.dir/Output/pjrcUSB/output_com.c.o
 .group         0x0000000000000000        0x8 CMakeFiles/kiibohd.elf.dir/Output/pjrcUSB/output_com.c.o
 .group         0x0000000000000000        0x8 CMakeFiles/kiibohd.elf.dir/Output/pjrcUSB/output_com.c.o
 .group         0x0000000000000000        0x8 CMakeFiles/kiibohd.elf.dir/Output/pjrcUSB/output_com.c.o
 .group         0x0000000000000000        0x8 CMakeFiles/kiibohd.elf.dir/Output/pjrcUSB/output_com.c.o
 .group         0x0000000000000000        0x8 CMakeFiles/kiibohd.elf.dir/Output/pjrcUSB/output_com.c.o
 .group         0x0000000000000000        0x8 CMakeFiles/kiibohd.elf.dir/Output/pjrcUSB/output_com.c.o
 .group         0x0000000000000000        0x8 CMakeFiles/kiibohd.elf.dir/Output/pjrcUSB/output_com.c.o
 .text          0x0000000000000000        0x0 CMakeFiles/kiibohd.elf.dir/Output/pjrcUSB/output_com.c.o
 .data          0x0000000000000000        0x0 CMakeFiles/kiibohd.elf.dir/Output/pjrcUSB/output_com.c.o
 .bss           0x0000000000000000        0x0 CMakeFiles/kiibohd.elf.dir/Output/pjrcUSB/output_com.c.o
 .text.Output_firmwareReload
                0x0000000000000000        0x4 CMakeFiles/kiibohd.elf.dir/Output/pjrcUSB/output_com.c.o
 .text.Output_putchar
                0x0000000000000000        0x4 CMakeFiles/kiibohd.elf.dir/Output/pjrcUSB/output_com.c.o
 .text.Output_update_external_current
                0x0000000000000000       0x40 CMakeFiles/kiibohd.elf.dir/Output/pjrcUSB/output_com.c.o
 .bss.USBKeys_Idle_Count
                0x0000000000000000        0x1 CMakeFiles/kiibohd.elf.dir/Output/pjrcUSB/output_com.c.o
 .debug_macro   0x0000000000000000      0x886 CMakeFiles/kiibohd.elf.dir/Output/pjrcUSB/output_com.c.o
 .debug_macro   0x0000000000000000       0x16 CMakeFiles/kiibohd.elf.dir/Output/pjrcUSB/output_com.c.o
 .debug_macro   0x0000000000000000       0x22 CMakeFiles/kiibohd.elf.dir/Output/pjrcUSB/output_com.c.o
 .debug_macro   0x0000000000000000       0x44 CMakeFiles/kiibohd.elf.dir/Output/pjrcUSB/output_com.c.o
 .debug_macro   0x0000000000000000       0xe3 CMakeFiles/kiibohd.elf.dir/Output/pjrcUSB/output_com.c.o
 .debug_macro   0x0000000000000000       0x22 CMakeFiles/kiibohd.elf.dir/Output/pjrcUSB/output_com.c.o
 .debug_macro   0x0000000000000000      0x1df CMakeFiles/kiibohd.elf.dir/Output/pjrcUSB/output_com.c.o
 .debug_macro   0x0000000000000000     0x301e CMakeFiles/kiibohd.elf.dir/Output/pjrcUSB/output_com.c.o
 .debug_macro   0x0000000000000000       0x10 CMakeFiles/kiibohd.elf.dir/Output/pjrcUSB/output_com.c.o
 .debug_macro   0x0000000000000000       0x10 CMakeFiles/kiibohd.elf.dir/Output/pjrcUSB/output_com.c.o
 .debug_macro   0x0000000000000000       0x7c CMakeFiles/kiibohd.elf.dir/Output/pjrcUSB/output_com.c.o
 .debug_macro   0x0000000000000000       0x10 CMakeFiles/kiibohd.elf.dir/Output/pjrcUSB/output_com.c.o
 .debug_macro   0x0000000000000000       0x3a CMakeFiles/kiibohd.elf.dir/Output/pjrcUSB/output_com.c.o
 .debug_macro   0x0000000000000000       0x9a CMakeFiles/kiibohd.elf.dir/Output/pjrcUSB/output_com.c.o
 .debug_macro   0x0000000000000000       0xa2 CMakeFiles/kiibohd.elf.dir/Output/pjrcUSB/output_com.c.o
 .debug_macro   0x0000000000000000     0x1217 CMakeFiles/kiibohd.elf.dir/Output/pjrcUSB/output_com.c.o
 .debug_macro   0x0000000000000000       0x57 CMakeFiles/kiibohd.elf.dir/Output/pjrcUSB/output_com.c.o
 .group         0x0000000000000000        0x8 CMakeFiles/kiibohd.elf.dir/Output/pjrcUSB/arm/usb_desc.c.o
 .group         0x0000000000000000        0x8 CMakeFiles/kiibohd.elf.dir/Output/pjrcUSB/arm/usb_desc.c.o
 .group         0x0000000000000000        0x8 CMakeFiles/kiibohd.elf.dir/Output/pjrcUSB/arm/usb_desc.c.o
 .group         0x0000000000000000        0x8 CMakeFiles/kiibohd.elf.dir/Output/pjrcUSB/arm/usb_desc.c.o
 .group         0x0000000000000000        0x8 CMakeFiles/kiibohd.elf.dir/Output/pjrcUSB/arm/usb_desc.c.o
 .group         0x0000000000000000        0x8 CMakeFiles/kiibohd.elf.dir/Output/pjrcUSB/arm/usb_desc.c.o
 .group         0x0000000000000000        0x8 CMakeFiles/kiibohd.elf.dir/Output/pjrcUSB/arm/usb_desc.c.o
 .group         0x0000000000000000        0x8 CMakeFiles/kiibohd.elf.dir/Output/pjrcUSB/arm/usb_desc.c.o
 .group         0x0000000000000000        0x8 CMakeFiles/kiibohd.elf.dir/Output/pjrcUSB/arm/usb_desc.c.o
 .group         0x0000000000000000        0x8 CMakeFiles/kiibohd.elf.dir/Output/pjrcUSB/arm/usb_desc.c.o
 .group         0x0000000000000000        0x8 CMakeFiles/kiibohd.elf.dir/Output/pjrcUSB/arm/usb_desc.c.o
 .text          0x0000000000000000        0x0 CMakeFiles/kiibohd.elf.dir/Output/pjrcUSB/arm/usb_desc.c.o
 .data          0x0000000000000000        0x0 CMakeFiles/kiibohd.elf.dir/Output/pjrcUSB/arm/usb_desc.c.o
 .bss           0x0000000000000000        0x0 CMakeFiles/kiibohd.elf.dir/Output/pjrcUSB/arm/usb_desc.c.o
 .debug_macro   0x0000000000000000      0x886 CMakeFiles/kiibohd.elf.dir/Output/pjrcUSB/arm/usb_desc.c.o
 .debug_macro   0x0000000000000000       0x22 CMakeFiles/kiibohd.elf.dir/Output/pjrcUSB/arm/usb_desc.c.o
 .debug_macro   0x0000000000000000       0x44 CMakeFiles/kiibohd.elf.dir/Output/pjrcUSB/arm/usb_desc.c.o
 .debug_macro   0x0000000000000000       0xe3 CMakeFiles/kiibohd.elf.dir/Output/pjrcUSB/arm/usb_desc.c.o
 .debug_macro   0x0000000000000000       0x22 CMakeFiles/kiibohd.elf.dir/Output/pjrcUSB/arm/usb_desc.c.o
 .debug_macro   0x0000000000000000      0x1df CMakeFiles/kiibohd.elf.dir/Output/pjrcUSB/arm/usb_desc.c.o
 .debug_macro   0x0000000000000000      0x16d CMakeFiles/kiibohd.elf.dir/Output/pjrcUSB/arm/usb_desc.c.o
 .debug_macro   0x0000000000000000       0x7c CMakeFiles/kiibohd.elf.dir/Output/pjrcUSB/arm/usb_desc.c.o
 .debug_macro   0x0000000000000000       0x10 CMakeFiles/kiibohd.elf.dir/Output/pjrcUSB/arm/usb_desc.c.o
 .debug_macro   0x0000000000000000      0x202 CMakeFiles/kiibohd.elf.dir/Output/pjrcUSB/arm/usb_desc.c.o
 .debug_macro   0x0000000000000000       0xa2 CMakeFiles/kiibohd.elf.dir/Output/pjrcUSB/arm/usb_desc.c.o
 .group         0x0000000000000000        0x8 CMakeFiles/kiibohd.elf.dir/Output/pjrcUSB/arm/usb_dev.c.o
 .group         0x0000000000000000        0x8 CMakeFiles/kiibohd.elf.dir/Output/pjrcUSB/arm/usb_dev.c.o
 .group         0x0000000000000000        0x8 CMakeFiles/kiibohd.elf.dir/Output/pjrcUSB/arm/usb_dev.c.o
 .group         0x0000000000000000        0x8 CMakeFiles/kiibohd.elf.dir/Output/pjrcUSB/arm/usb_dev.c.o
 .group         0x0000000000000000        0x8 CMakeFiles/kiibohd.elf.dir/Output/pjrcUSB/arm/usb_dev.c.o
 .group         0x0000000000000000        0x8 CMakeFiles/kiibohd.elf.dir/Output/pjrcUSB/arm/usb_dev.c.o
 .group         0x0000000000000000        0x8 CMakeFiles/kiibohd.elf.dir/Output/pjrcUSB/arm/usb_dev.c.o
 .group         0x0000000000000000        0x8 CMakeFiles/kiibohd.elf.dir/Output/pjrcUSB/arm/usb_dev.c.o
 .group         0x0000000000000000        0x8 CMakeFiles/kiibohd.elf.dir/Output/pjrcUSB/arm/usb_dev.c.o
 .group         0x0000000000000000        0x8 CMakeFiles/kiibohd.elf.dir/Output/pjrcUSB/arm/usb_dev.c.o
 .group         0x0000000000000000        0x8 CMakeFiles/kiibohd.elf.dir/Output/pjrcUSB/arm/usb_dev.c.o
 .group         0x0000000000000000        0x8 CMakeFiles/kiibohd.elf.dir/Output/pjrcUSB/arm/usb_dev.c.o
 .group         0x0000000000000000        0x8 CMakeFiles/kiibohd.elf.dir/Output/pjrcUSB/arm/usb_dev.c.o
 .group         0x0000000000000000        0x8 CMakeFiles/kiibohd.elf.dir/Output/pjrcUSB/arm/usb_dev.c.o
 .group         0x0000000000000000        0x8 CMakeFiles/kiibohd.elf.dir/Output/pjrcUSB/arm/usb_dev.c.o
 .group         0x0000000000000000        0x8 CMakeFiles/kiibohd.elf.dir/Output/pjrcUSB/arm/usb_dev.c.o
 .group         0x0000000000000000        0x8 CMakeFiles/kiibohd.elf.dir/Output/pjrcUSB/arm/usb_dev.c.o
 .group         0x0000000000000000        0x8 CMakeFiles/kiibohd.elf.dir/Output/pjrcUSB/arm/usb_dev.c.o
 .group         0x0000000000000000        0x8 CMakeFiles/kiibohd.elf.dir/Output/pjrcUSB/arm/usb_dev.c.o
 .group         0x0000000000000000        0x8 CMakeFiles/kiibohd.elf.dir/Output/pjrcUSB/arm/usb_dev.c.o
 .text          0x0000000000000000        0x0 CMakeFiles/kiibohd.elf.dir/Output/pjrcUSB/arm/usb_dev.c.o
 .data          0x0000000000000000        0x0 CMakeFiles/kiibohd.elf.dir/Output/pjrcUSB/arm/usb_dev.c.o
 .bss           0x0000000000000000        0x0 CMakeFiles/kiibohd.elf.dir/Output/pjrcUSB/arm/usb_dev.c.o
 .text.usb_tx_byte_count
                0x0000000000000000       0x28 CMakeFiles/kiibohd.elf.dir/Output/pjrcUSB/arm/usb_dev.c.o
 .text.usb_reinit
                0x0000000000000000       0x24 CMakeFiles/kiibohd.elf.dir/Output/pjrcUSB/arm/usb_dev.c.o
 .text.usb_configured
                0x0000000000000000        0xc CMakeFiles/kiibohd.elf.dir/Output/pjrcUSB/arm/usb_dev.c.o
 .debug_macro   0x0000000000000000      0x886 CMakeFiles/kiibohd.elf.dir/Output/pjrcUSB/arm/usb_dev.c.o
 .debug_macro   0x0000000000000000       0x16 CMakeFiles/kiibohd.elf.dir/Output/pjrcUSB/arm/usb_dev.c.o
 .debug_macro   0x0000000000000000       0x22 CMakeFiles/kiibohd.elf.dir/Output/pjrcUSB/arm/usb_dev.c.o
 .debug_macro   0x0000000000000000       0x44 CMakeFiles/kiibohd.elf.dir/Output/pjrcUSB/arm/usb_dev.c.o
 .debug_macro   0x0000000000000000       0xe3 CMakeFiles/kiibohd.elf.dir/Output/pjrcUSB/arm/usb_dev.c.o
 .debug_macro   0x0000000000000000       0x22 CMakeFiles/kiibohd.elf.dir/Output/pjrcUSB/arm/usb_dev.c.o
 .debug_macro   0x0000000000000000      0x1df CMakeFiles/kiibohd.elf.dir/Output/pjrcUSB/arm/usb_dev.c.o
 .debug_macro   0x0000000000000000     0x301e CMakeFiles/kiibohd.elf.dir/Output/pjrcUSB/arm/usb_dev.c.o
 .debug_macro   0x0000000000000000       0x10 CMakeFiles/kiibohd.elf.dir/Output/pjrcUSB/arm/usb_dev.c.o
 .debug_macro   0x0000000000000000       0x7c CMakeFiles/kiibohd.elf.dir/Output/pjrcUSB/arm/usb_dev.c.o
 .debug_macro   0x0000000000000000       0x10 CMakeFiles/kiibohd.elf.dir/Output/pjrcUSB/arm/usb_dev.c.o
 .debug_macro   0x0000000000000000       0x9a CMakeFiles/kiibohd.elf.dir/Output/pjrcUSB/arm/usb_dev.c.o
 .debug_macro   0x0000000000000000       0xa2 CMakeFiles/kiibohd.elf.dir/Output/pjrcUSB/arm/usb_dev.c.o
 .debug_macro   0x0000000000000000      0x16d CMakeFiles/kiibohd.elf.dir/Output/pjrcUSB/arm/usb_dev.c.o
 .debug_macro   0x0000000000000000      0x202 CMakeFiles/kiibohd.elf.dir/Output/pjrcUSB/arm/usb_dev.c.o
 .debug_macro   0x0000000000000000       0x58 CMakeFiles/kiibohd.elf.dir/Output/pjrcUSB/arm/usb_dev.c.o
 .debug_macro   0x0000000000000000       0x35 CMakeFiles/kiibohd.elf.dir/Output/pjrcUSB/arm/usb_dev.c.o
 .debug_macro   0x0000000000000000       0x35 CMakeFiles/kiibohd.elf.dir/Output/pjrcUSB/arm/usb_dev.c.o
 .debug_macro   0x0000000000000000      0x45d CMakeFiles/kiibohd.elf.dir/Output/pjrcUSB/arm/usb_dev.c.o
 .debug_macro   0x0000000000000000       0x22 CMakeFiles/kiibohd.elf.dir/Output/pjrcUSB/arm/usb_dev.c.o
 .group         0x0000000000000000        0x8 CMakeFiles/kiibohd.elf.dir/Output/pjrcUSB/arm/usb_joystick.c.o
 .text          0x0000000000000000        0x0 CMakeFiles/kiibohd.elf.dir/Output/pjrcUSB/arm/usb_joystick.c.o
 .data          0x0000000000000000        0x0 CMakeFiles/kiibohd.elf.dir/Output/pjrcUSB/arm/usb_joystick.c.o
 .bss           0x0000000000000000        0x0 CMakeFiles/kiibohd.elf.dir/Output/pjrcUSB/arm/usb_joystick.c.o
 .debug_info    0x0000000000000000       0x1d CMakeFiles/kiibohd.elf.dir/Output/pjrcUSB/arm/usb_joystick.c.o
 .debug_abbrev  0x0000000000000000       0x11 CMakeFiles/kiibohd.elf.dir/Output/pjrcUSB/arm/usb_joystick.c.o
 .debug_aranges
                0x0000000000000000       0x18 CMakeFiles/kiibohd.elf.dir/Output/pjrcUSB/arm/usb_joystick.c.o
 .debug_macro   0x0000000000000000       0x11 CMakeFiles/kiibohd.elf.dir/Output/pjrcUSB/arm/usb_joystick.c.o
 .debug_macro   0x0000000000000000      0x886 CMakeFiles/kiibohd.elf.dir/Output/pjrcUSB/arm/usb_joystick.c.o
 .debug_line    0x0000000000000000       0x63 CMakeFiles/kiibohd.elf.dir/Output/pjrcUSB/arm/usb_joystick.c.o
 .debug_str     0x0000000000000000     0x247e CMakeFiles/kiibohd.elf.dir/Output/pjrcUSB/arm/usb_joystick.c.o
 .comment       0x0000000000000000       0x39 CMakeFiles/kiibohd.elf.dir/Output/pjrcUSB/arm/usb_joystick.c.o
 .ARM.attributes
                0x0000000000000000       0x33 CMakeFiles/kiibohd.elf.dir/Output/pjrcUSB/arm/usb_joystick.c.o
 .group         0x0000000000000000        0x8 CMakeFiles/kiibohd.elf.dir/Output/pjrcUSB/arm/usb_keyboard.c.o
 .group         0x0000000000000000        0x8 CMakeFiles/kiibohd.elf.dir/Output/pjrcUSB/arm/usb_keyboard.c.o
 .group         0x0000000000000000        0x8 CMakeFiles/kiibohd.elf.dir/Output/pjrcUSB/arm/usb_keyboard.c.o
 .group         0x0000000000000000        0x8 CMakeFiles/kiibohd.elf.dir/Output/pjrcUSB/arm/usb_keyboard.c.o
 .group         0x0000000000000000        0x8 CMakeFiles/kiibohd.elf.dir/Output/pjrcUSB/arm/usb_keyboard.c.o
 .group         0x0000000000000000        0x8 CMakeFiles/kiibohd.elf.dir/Output/pjrcUSB/arm/usb_keyboard.c.o
 .group         0x0000000000000000        0x8 CMakeFiles/kiibohd.elf.dir/Output/pjrcUSB/arm/usb_keyboard.c.o
 .group         0x0000000000000000        0x8 CMakeFiles/kiibohd.elf.dir/Output/pjrcUSB/arm/usb_keyboard.c.o
 .group         0x0000000000000000        0x8 CMakeFiles/kiibohd.elf.dir/Output/pjrcUSB/arm/usb_keyboard.c.o
 .group         0x0000000000000000        0x8 CMakeFiles/kiibohd.elf.dir/Output/pjrcUSB/arm/usb_keyboard.c.o
 .group         0x0000000000000000        0x8 CMakeFiles/kiibohd.elf.dir/Output/pjrcUSB/arm/usb_keyboard.c.o
 .group         0x0000000000000000        0x8 CMakeFiles/kiibohd.elf.dir/Output/pjrcUSB/arm/usb_keyboard.c.o
 .group         0x0000000000000000        0x8 CMakeFiles/kiibohd.elf.dir/Output/pjrcUSB/arm/usb_keyboard.c.o
 .group         0x0000000000000000        0x8 CMakeFiles/kiibohd.elf.dir/Output/pjrcUSB/arm/usb_keyboard.c.o
 .group         0x0000000000000000        0x8 CMakeFiles/kiibohd.elf.dir/Output/pjrcUSB/arm/usb_keyboard.c.o
 .group         0x0000000000000000        0x8 CMakeFiles/kiibohd.elf.dir/Output/pjrcUSB/arm/usb_keyboard.c.o
 .group         0x0000000000000000        0x8 CMakeFiles/kiibohd.elf.dir/Output/pjrcUSB/arm/usb_keyboard.c.o
 .group         0x0000000000000000        0x8 CMakeFiles/kiibohd.elf.dir/Output/pjrcUSB/arm/usb_keyboard.c.o
 .group         0x0000000000000000        0x8 CMakeFiles/kiibohd.elf.dir/Output/pjrcUSB/arm/usb_keyboard.c.o
 .group         0x0000000000000000        0x8 CMakeFiles/kiibohd.elf.dir/Output/pjrcUSB/arm/usb_keyboard.c.o
 .group         0x0000000000000000        0x8 CMakeFiles/kiibohd.elf.dir/Output/pjrcUSB/arm/usb_keyboard.c.o
 .group         0x0000000000000000        0x8 CMakeFiles/kiibohd.elf.dir/Output/pjrcUSB/arm/usb_keyboard.c.o
 .group         0x0000000000000000        0x8 CMakeFiles/kiibohd.elf.dir/Output/pjrcUSB/arm/usb_keyboard.c.o
 .group         0x0000000000000000        0x8 CMakeFiles/kiibohd.elf.dir/Output/pjrcUSB/arm/usb_keyboard.c.o
 .group         0x0000000000000000        0x8 CMakeFiles/kiibohd.elf.dir/Output/pjrcUSB/arm/usb_keyboard.c.o
 .group         0x0000000000000000        0x8 CMakeFiles/kiibohd.elf.dir/Output/pjrcUSB/arm/usb_keyboard.c.o
 .group         0x0000000000000000        0x8 CMakeFiles/kiibohd.elf.dir/Output/pjrcUSB/arm/usb_keyboard.c.o
 .text          0x0000000000000000        0x0 CMakeFiles/kiibohd.elf.dir/Output/pjrcUSB/arm/usb_keyboard.c.o
 .data          0x0000000000000000        0x0 CMakeFiles/kiibohd.elf.dir/Output/pjrcUSB/arm/usb_keyboard.c.o
 .bss           0x0000000000000000        0x0 CMakeFiles/kiibohd.elf.dir/Output/pjrcUSB/arm/usb_keyboard.c.o
 .debug_macro   0x0000000000000000      0x886 CMakeFiles/kiibohd.elf.dir/Output/pjrcUSB/arm/usb_keyboard.c.o
 .debug_macro   0x0000000000000000       0xa2 CMakeFiles/kiibohd.elf.dir/Output/pjrcUSB/arm/usb_keyboard.c.o
 .debug_macro   0x0000000000000000       0x58 CMakeFiles/kiibohd.elf.dir/Output/pjrcUSB/arm/usb_keyboard.c.o
 .debug_macro   0x0000000000000000       0x22 CMakeFiles/kiibohd.elf.dir/Output/pjrcUSB/arm/usb_keyboard.c.o
 .debug_macro   0x0000000000000000       0x35 CMakeFiles/kiibohd.elf.dir/Output/pjrcUSB/arm/usb_keyboard.c.o
 .debug_macro   0x0000000000000000      0x16d CMakeFiles/kiibohd.elf.dir/Output/pjrcUSB/arm/usb_keyboard.c.o
 .debug_macro   0x0000000000000000       0x35 CMakeFiles/kiibohd.elf.dir/Output/pjrcUSB/arm/usb_keyboard.c.o
 .debug_macro   0x0000000000000000       0xe3 CMakeFiles/kiibohd.elf.dir/Output/pjrcUSB/arm/usb_keyboard.c.o
 .debug_macro   0x0000000000000000       0x22 CMakeFiles/kiibohd.elf.dir/Output/pjrcUSB/arm/usb_keyboard.c.o
 .debug_macro   0x0000000000000000      0x1df CMakeFiles/kiibohd.elf.dir/Output/pjrcUSB/arm/usb_keyboard.c.o
 .debug_macro   0x0000000000000000     0x301e CMakeFiles/kiibohd.elf.dir/Output/pjrcUSB/arm/usb_keyboard.c.o
 .debug_macro   0x0000000000000000       0x10 CMakeFiles/kiibohd.elf.dir/Output/pjrcUSB/arm/usb_keyboard.c.o
 .debug_macro   0x0000000000000000       0x7c CMakeFiles/kiibohd.elf.dir/Output/pjrcUSB/arm/usb_keyboard.c.o
 .debug_macro   0x0000000000000000       0x10 CMakeFiles/kiibohd.elf.dir/Output/pjrcUSB/arm/usb_keyboard.c.o
 .debug_macro   0x0000000000000000       0x9a CMakeFiles/kiibohd.elf.dir/Output/pjrcUSB/arm/usb_keyboard.c.o
 .debug_macro   0x0000000000000000      0x202 CMakeFiles/kiibohd.elf.dir/Output/pjrcUSB/arm/usb_keyboard.c.o
 .debug_macro   0x0000000000000000      0x45d CMakeFiles/kiibohd.elf.dir/Output/pjrcUSB/arm/usb_keyboard.c.o
 .group         0x0000000000000000        0x8 CMakeFiles/kiibohd.elf.dir/Output/pjrcUSB/arm/usb_mem.c.o
 .group         0x0000000000000000        0x8 CMakeFiles/kiibohd.elf.dir/Output/pjrcUSB/arm/usb_mem.c.o
 .group         0x0000000000000000        0x8 CMakeFiles/kiibohd.elf.dir/Output/pjrcUSB/arm/usb_mem.c.o
 .group         0x0000000000000000        0x8 CMakeFiles/kiibohd.elf.dir/Output/pjrcUSB/arm/usb_mem.c.o
 .group         0x0000000000000000        0x8 CMakeFiles/kiibohd.elf.dir/Output/pjrcUSB/arm/usb_mem.c.o
 .group         0x0000000000000000        0x8 CMakeFiles/kiibohd.elf.dir/Output/pjrcUSB/arm/usb_mem.c.o
 .group         0x0000000000000000        0x8 CMakeFiles/kiibohd.elf.dir/Output/pjrcUSB/arm/usb_mem.c.o
 .group         0x0000000000000000        0x8 CMakeFiles/kiibohd.elf.dir/Output/pjrcUSB/arm/usb_mem.c.o
 .group         0x0000000000000000        0x8 CMakeFiles/kiibohd.elf.dir/Output/pjrcUSB/arm/usb_mem.c.o
 .group         0x0000000000000000        0x8 CMakeFiles/kiibohd.elf.dir/Output/pjrcUSB/arm/usb_mem.c.o
 .group         0x0000000000000000        0x8 CMakeFiles/kiibohd.elf.dir/Output/pjrcUSB/arm/usb_mem.c.o
 .group         0x0000000000000000        0x8 CMakeFiles/kiibohd.elf.dir/Output/pjrcUSB/arm/usb_mem.c.o
 .group         0x0000000000000000        0x8 CMakeFiles/kiibohd.elf.dir/Output/pjrcUSB/arm/usb_mem.c.o
 .text          0x0000000000000000        0x0 CMakeFiles/kiibohd.elf.dir/Output/pjrcUSB/arm/usb_mem.c.o
 .data          0x0000000000000000        0x0 CMakeFiles/kiibohd.elf.dir/Output/pjrcUSB/arm/usb_mem.c.o
 .bss           0x0000000000000000        0x0 CMakeFiles/kiibohd.elf.dir/Output/pjrcUSB/arm/usb_mem.c.o
 .debug_macro   0x0000000000000000      0x886 CMakeFiles/kiibohd.elf.dir/Output/pjrcUSB/arm/usb_mem.c.o
 .debug_macro   0x0000000000000000       0x16 CMakeFiles/kiibohd.elf.dir/Output/pjrcUSB/arm/usb_mem.c.o
 .debug_macro   0x0000000000000000       0x22 CMakeFiles/kiibohd.elf.dir/Output/pjrcUSB/arm/usb_mem.c.o
 .debug_macro   0x0000000000000000       0x44 CMakeFiles/kiibohd.elf.dir/Output/pjrcUSB/arm/usb_mem.c.o
 .debug_macro   0x0000000000000000       0xe3 CMakeFiles/kiibohd.elf.dir/Output/pjrcUSB/arm/usb_mem.c.o
 .debug_macro   0x0000000000000000       0x22 CMakeFiles/kiibohd.elf.dir/Output/pjrcUSB/arm/usb_mem.c.o
 .debug_macro   0x0000000000000000      0x1df CMakeFiles/kiibohd.elf.dir/Output/pjrcUSB/arm/usb_mem.c.o
 .debug_macro   0x0000000000000000     0x301e CMakeFiles/kiibohd.elf.dir/Output/pjrcUSB/arm/usb_mem.c.o
 .debug_macro   0x0000000000000000       0x10 CMakeFiles/kiibohd.elf.dir/Output/pjrcUSB/arm/usb_mem.c.o
 .debug_macro   0x0000000000000000      0x16d CMakeFiles/kiibohd.elf.dir/Output/pjrcUSB/arm/usb_mem.c.o
 .debug_macro   0x0000000000000000       0x7c CMakeFiles/kiibohd.elf.dir/Output/pjrcUSB/arm/usb_mem.c.o
 .debug_macro   0x0000000000000000       0x10 CMakeFiles/kiibohd.elf.dir/Output/pjrcUSB/arm/usb_mem.c.o
 .debug_macro   0x0000000000000000      0x202 CMakeFiles/kiibohd.elf.dir/Output/pjrcUSB/arm/usb_mem.c.o
 .group         0x0000000000000000        0x8 CMakeFiles/kiibohd.elf.dir/Output/pjrcUSB/arm/usb_mouse.c.o
 .group         0x0000000000000000        0x8 CMakeFiles/kiibohd.elf.dir/Output/pjrcUSB/arm/usb_mouse.c.o
 .group         0x0000000000000000        0x8 CMakeFiles/kiibohd.elf.dir/Output/pjrcUSB/arm/usb_mouse.c.o
 .group         0x0000000000000000        0x8 CMakeFiles/kiibohd.elf.dir/Output/pjrcUSB/arm/usb_mouse.c.o
 .group         0x0000000000000000        0x8 CMakeFiles/kiibohd.elf.dir/Output/pjrcUSB/arm/usb_mouse.c.o
 .group         0x0000000000000000        0x8 CMakeFiles/kiibohd.elf.dir/Output/pjrcUSB/arm/usb_mouse.c.o
 .group         0x0000000000000000        0x8 CMakeFiles/kiibohd.elf.dir/Output/pjrcUSB/arm/usb_mouse.c.o
 .group         0x0000000000000000        0x8 CMakeFiles/kiibohd.elf.dir/Output/pjrcUSB/arm/usb_mouse.c.o
 .group         0x0000000000000000        0x8 CMakeFiles/kiibohd.elf.dir/Output/pjrcUSB/arm/usb_mouse.c.o
 .group         0x0000000000000000        0x8 CMakeFiles/kiibohd.elf.dir/Output/pjrcUSB/arm/usb_mouse.c.o
 .group         0x0000000000000000        0x8 CMakeFiles/kiibohd.elf.dir/Output/pjrcUSB/arm/usb_mouse.c.o
 .group         0x0000000000000000        0x8 CMakeFiles/kiibohd.elf.dir/Output/pjrcUSB/arm/usb_mouse.c.o
 .group         0x0000000000000000        0x8 CMakeFiles/kiibohd.elf.dir/Output/pjrcUSB/arm/usb_mouse.c.o
 .group         0x0000000000000000        0x8 CMakeFiles/kiibohd.elf.dir/Output/pjrcUSB/arm/usb_mouse.c.o
 .group         0x0000000000000000        0x8 CMakeFiles/kiibohd.elf.dir/Output/pjrcUSB/arm/usb_mouse.c.o
 .group         0x0000000000000000        0x8 CMakeFiles/kiibohd.elf.dir/Output/pjrcUSB/arm/usb_mouse.c.o
 .group         0x0000000000000000        0x8 CMakeFiles/kiibohd.elf.dir/Output/pjrcUSB/arm/usb_mouse.c.o
 .group         0x0000000000000000        0x8 CMakeFiles/kiibohd.elf.dir/Output/pjrcUSB/arm/usb_mouse.c.o
 .group         0x0000000000000000        0x8 CMakeFiles/kiibohd.elf.dir/Output/pjrcUSB/arm/usb_mouse.c.o
 .group         0x0000000000000000        0x8 CMakeFiles/kiibohd.elf.dir/Output/pjrcUSB/arm/usb_mouse.c.o
 .group         0x0000000000000000        0x8 CMakeFiles/kiibohd.elf.dir/Output/pjrcUSB/arm/usb_mouse.c.o
 .group         0x0000000000000000        0x8 CMakeFiles/kiibohd.elf.dir/Output/pjrcUSB/arm/usb_mouse.c.o
 .group         0x0000000000000000        0x8 CMakeFiles/kiibohd.elf.dir/Output/pjrcUSB/arm/usb_mouse.c.o
 .group         0x0000000000000000        0x8 CMakeFiles/kiibohd.elf.dir/Output/pjrcUSB/arm/usb_mouse.c.o
 .group         0x0000000000000000        0x8 CMakeFiles/kiibohd.elf.dir/Output/pjrcUSB/arm/usb_mouse.c.o
 .group         0x0000000000000000        0x8 CMakeFiles/kiibohd.elf.dir/Output/pjrcUSB/arm/usb_mouse.c.o
 .group         0x0000000000000000        0x8 CMakeFiles/kiibohd.elf.dir/Output/pjrcUSB/arm/usb_mouse.c.o
 .text          0x0000000000000000        0x0 CMakeFiles/kiibohd.elf.dir/Output/pjrcUSB/arm/usb_mouse.c.o
 .data          0x0000000000000000        0x0 CMakeFiles/kiibohd.elf.dir/Output/pjrcUSB/arm/usb_mouse.c.o
 .bss           0x0000000000000000        0x0 CMakeFiles/kiibohd.elf.dir/Output/pjrcUSB/arm/usb_mouse.c.o
 .text.usb_mouse_move
                0x0000000000000000       0xa0 CMakeFiles/kiibohd.elf.dir/Output/pjrcUSB/arm/usb_mouse.c.o
 .text.usb_mouse_position
                0x0000000000000000       0xd0 CMakeFiles/kiibohd.elf.dir/Output/pjrcUSB/arm/usb_mouse.c.o
 .text.usb_mouse_screen_size
                0x0000000000000000       0xc8 CMakeFiles/kiibohd.elf.dir/Output/pjrcUSB/arm/usb_mouse.c.o
 .bss.usb_mouse_buttons_state
                0x0000000000000000        0x1 CMakeFiles/kiibohd.elf.dir/Output/pjrcUSB/arm/usb_mouse.c.o
 .data.usb_mouse_scale_x
                0x0000000000000000        0x4 CMakeFiles/kiibohd.elf.dir/Output/pjrcUSB/arm/usb_mouse.c.o
 .data.usb_mouse_scale_y
                0x0000000000000000        0x4 CMakeFiles/kiibohd.elf.dir/Output/pjrcUSB/arm/usb_mouse.c.o
 .data.usb_mouse_position_x
                0x0000000000000000        0x2 CMakeFiles/kiibohd.elf.dir/Output/pjrcUSB/arm/usb_mouse.c.o
 .data.usb_mouse_position_y
                0x0000000000000000        0x2 CMakeFiles/kiibohd.elf.dir/Output/pjrcUSB/arm/usb_mouse.c.o
 .data.usb_mouse_offset_x
                0x0000000000000000        0x4 CMakeFiles/kiibohd.elf.dir/Output/pjrcUSB/arm/usb_mouse.c.o
 .data.usb_mouse_offset_y
                0x0000000000000000        0x4 CMakeFiles/kiibohd.elf.dir/Output/pjrcUSB/arm/usb_mouse.c.o
 .data.usb_mouse_resolution_x
                0x0000000000000000        0x2 CMakeFiles/kiibohd.elf.dir/Output/pjrcUSB/arm/usb_mouse.c.o
 .data.usb_mouse_resolution_y
                0x0000000000000000        0x2 CMakeFiles/kiibohd.elf.dir/Output/pjrcUSB/arm/usb_mouse.c.o
 .debug_macro   0x0000000000000000      0x886 CMakeFiles/kiibohd.elf.dir/Output/pjrcUSB/arm/usb_mouse.c.o
 .debug_macro   0x0000000000000000       0xa2 CMakeFiles/kiibohd.elf.dir/Output/pjrcUSB/arm/usb_mouse.c.o
 .debug_macro   0x0000000000000000       0x58 CMakeFiles/kiibohd.elf.dir/Output/pjrcUSB/arm/usb_mouse.c.o
 .debug_macro   0x0000000000000000       0x22 CMakeFiles/kiibohd.elf.dir/Output/pjrcUSB/arm/usb_mouse.c.o
 .debug_macro   0x0000000000000000       0x35 CMakeFiles/kiibohd.elf.dir/Output/pjrcUSB/arm/usb_mouse.c.o
 .debug_macro   0x0000000000000000       0x9c CMakeFiles/kiibohd.elf.dir/Output/pjrcUSB/arm/usb_mouse.c.o
 .debug_macro   0x0000000000000000      0x16d CMakeFiles/kiibohd.elf.dir/Output/pjrcUSB/arm/usb_mouse.c.o
 .debug_macro   0x0000000000000000       0x4a CMakeFiles/kiibohd.elf.dir/Output/pjrcUSB/arm/usb_mouse.c.o
 .debug_macro   0x0000000000000000       0x52 CMakeFiles/kiibohd.elf.dir/Output/pjrcUSB/arm/usb_mouse.c.o
 .debug_macro   0x0000000000000000       0x16 CMakeFiles/kiibohd.elf.dir/Output/pjrcUSB/arm/usb_mouse.c.o
 .debug_macro   0x0000000000000000       0x43 CMakeFiles/kiibohd.elf.dir/Output/pjrcUSB/arm/usb_mouse.c.o
 .debug_macro   0x0000000000000000      0x180 CMakeFiles/kiibohd.elf.dir/Output/pjrcUSB/arm/usb_mouse.c.o
 .debug_macro   0x0000000000000000      0x27a CMakeFiles/kiibohd.elf.dir/Output/pjrcUSB/arm/usb_mouse.c.o
 .debug_macro   0x0000000000000000       0x10 CMakeFiles/kiibohd.elf.dir/Output/pjrcUSB/arm/usb_mouse.c.o
 .debug_macro   0x0000000000000000       0x35 CMakeFiles/kiibohd.elf.dir/Output/pjrcUSB/arm/usb_mouse.c.o
 .debug_macro   0x0000000000000000       0x10 CMakeFiles/kiibohd.elf.dir/Output/pjrcUSB/arm/usb_mouse.c.o
 .debug_macro   0x0000000000000000       0xe3 CMakeFiles/kiibohd.elf.dir/Output/pjrcUSB/arm/usb_mouse.c.o
 .debug_macro   0x0000000000000000       0x22 CMakeFiles/kiibohd.elf.dir/Output/pjrcUSB/arm/usb_mouse.c.o
 .debug_macro   0x0000000000000000      0x1df CMakeFiles/kiibohd.elf.dir/Output/pjrcUSB/arm/usb_mouse.c.o
 .debug_macro   0x0000000000000000     0x301e CMakeFiles/kiibohd.elf.dir/Output/pjrcUSB/arm/usb_mouse.c.o
 .debug_macro   0x0000000000000000       0x10 CMakeFiles/kiibohd.elf.dir/Output/pjrcUSB/arm/usb_mouse.c.o
 .debug_macro   0x0000000000000000       0x7c CMakeFiles/kiibohd.elf.dir/Output/pjrcUSB/arm/usb_mouse.c.o
 .debug_macro   0x0000000000000000       0x10 CMakeFiles/kiibohd.elf.dir/Output/pjrcUSB/arm/usb_mouse.c.o
 .debug_macro   0x0000000000000000       0x9a CMakeFiles/kiibohd.elf.dir/Output/pjrcUSB/arm/usb_mouse.c.o
 .debug_macro   0x0000000000000000      0x202 CMakeFiles/kiibohd.elf.dir/Output/pjrcUSB/arm/usb_mouse.c.o
 .debug_macro   0x0000000000000000       0x10 CMakeFiles/kiibohd.elf.dir/Output/pjrcUSB/arm/usb_mouse.c.o
 .debug_macro   0x0000000000000000      0x45d CMakeFiles/kiibohd.elf.dir/Output/pjrcUSB/arm/usb_mouse.c.o
 .group         0x0000000000000000        0x8 CMakeFiles/kiibohd.elf.dir/Output/pjrcUSB/arm/usb_rawio.c.o
 .group         0x0000000000000000        0x8 CMakeFiles/kiibohd.elf.dir/Output/pjrcUSB/arm/usb_rawio.c.o
 .text          0x0000000000000000        0x0 CMakeFiles/kiibohd.elf.dir/Output/pjrcUSB/arm/usb_rawio.c.o
 .data          0x0000000000000000        0x0 CMakeFiles/kiibohd.elf.dir/Output/pjrcUSB/arm/usb_rawio.c.o
 .bss           0x0000000000000000        0x0 CMakeFiles/kiibohd.elf.dir/Output/pjrcUSB/arm/usb_rawio.c.o
 .debug_info    0x0000000000000000       0x1d CMakeFiles/kiibohd.elf.dir/Output/pjrcUSB/arm/usb_rawio.c.o
 .debug_abbrev  0x0000000000000000       0x11 CMakeFiles/kiibohd.elf.dir/Output/pjrcUSB/arm/usb_rawio.c.o
 .debug_aranges
                0x0000000000000000       0x18 CMakeFiles/kiibohd.elf.dir/Output/pjrcUSB/arm/usb_rawio.c.o
 .debug_macro   0x0000000000000000       0x1a CMakeFiles/kiibohd.elf.dir/Output/pjrcUSB/arm/usb_rawio.c.o
 .debug_macro   0x0000000000000000      0x886 CMakeFiles/kiibohd.elf.dir/Output/pjrcUSB/arm/usb_rawio.c.o
 .debug_macro   0x0000000000000000       0xa2 CMakeFiles/kiibohd.elf.dir/Output/pjrcUSB/arm/usb_rawio.c.o
 .debug_line    0x0000000000000000       0xa6 CMakeFiles/kiibohd.elf.dir/Output/pjrcUSB/arm/usb_rawio.c.o
 .debug_str     0x0000000000000000     0x2ac1 CMakeFiles/kiibohd.elf.dir/Output/pjrcUSB/arm/usb_rawio.c.o
 .comment       0x0000000000000000       0x39 CMakeFiles/kiibohd.elf.dir/Output/pjrcUSB/arm/usb_rawio.c.o
 .ARM.attributes
                0x0000000000000000       0x33 CMakeFiles/kiibohd.elf.dir/Output/pjrcUSB/arm/usb_rawio.c.o
 .group         0x0000000000000000        0x8 CMakeFiles/kiibohd.elf.dir/Output/pjrcUSB/arm/usb_serial.c.o
 .group         0x0000000000000000        0x8 CMakeFiles/kiibohd.elf.dir/Output/pjrcUSB/arm/usb_serial.c.o
 .group         0x0000000000000000        0x8 CMakeFiles/kiibohd.elf.dir/Output/pjrcUSB/arm/usb_serial.c.o
 .group         0x0000000000000000        0x8 CMakeFiles/kiibohd.elf.dir/Output/pjrcUSB/arm/usb_serial.c.o
 .group         0x0000000000000000        0x8 CMakeFiles/kiibohd.elf.dir/Output/pjrcUSB/arm/usb_serial.c.o
 .group         0x0000000000000000        0x8 CMakeFiles/kiibohd.elf.dir/Output/pjrcUSB/arm/usb_serial.c.o
 .group         0x0000000000000000        0x8 CMakeFiles/kiibohd.elf.dir/Output/pjrcUSB/arm/usb_serial.c.o
 .group         0x0000000000000000        0x8 CMakeFiles/kiibohd.elf.dir/Output/pjrcUSB/arm/usb_serial.c.o
 .group         0x0000000000000000        0x8 CMakeFiles/kiibohd.elf.dir/Output/pjrcUSB/arm/usb_serial.c.o
 .group         0x0000000000000000        0x8 CMakeFiles/kiibohd.elf.dir/Output/pjrcUSB/arm/usb_serial.c.o
 .group         0x0000000000000000        0x8 CMakeFiles/kiibohd.elf.dir/Output/pjrcUSB/arm/usb_serial.c.o
 .group         0x0000000000000000        0x8 CMakeFiles/kiibohd.elf.dir/Output/pjrcUSB/arm/usb_serial.c.o
 .group         0x0000000000000000        0x8 CMakeFiles/kiibohd.elf.dir/Output/pjrcUSB/arm/usb_serial.c.o
 .group         0x0000000000000000        0x8 CMakeFiles/kiibohd.elf.dir/Output/pjrcUSB/arm/usb_serial.c.o
 .group         0x0000000000000000        0x8 CMakeFiles/kiibohd.elf.dir/Output/pjrcUSB/arm/usb_serial.c.o
 .group         0x0000000000000000        0x8 CMakeFiles/kiibohd.elf.dir/Output/pjrcUSB/arm/usb_serial.c.o
 .group         0x0000000000000000        0x8 CMakeFiles/kiibohd.elf.dir/Output/pjrcUSB/arm/usb_serial.c.o
 .group         0x0000000000000000        0x8 CMakeFiles/kiibohd.elf.dir/Output/pjrcUSB/arm/usb_serial.c.o
 .group         0x0000000000000000        0x8 CMakeFiles/kiibohd.elf.dir/Output/pjrcUSB/arm/usb_serial.c.o
 .group         0x0000000000000000        0x8 CMakeFiles/kiibohd.elf.dir/Output/pjrcUSB/arm/usb_serial.c.o
 .group         0x0000000000000000        0x8 CMakeFiles/kiibohd.elf.dir/Output/pjrcUSB/arm/usb_serial.c.o
 .group         0x0000000000000000        0x8 CMakeFiles/kiibohd.elf.dir/Output/pjrcUSB/arm/usb_serial.c.o
 .group         0x0000000000000000        0x8 CMakeFiles/kiibohd.elf.dir/Output/pjrcUSB/arm/usb_serial.c.o
 .group         0x0000000000000000        0x8 CMakeFiles/kiibohd.elf.dir/Output/pjrcUSB/arm/usb_serial.c.o
 .group         0x0000000000000000        0x8 CMakeFiles/kiibohd.elf.dir/Output/pjrcUSB/arm/usb_serial.c.o
 .group         0x0000000000000000        0x8 CMakeFiles/kiibohd.elf.dir/Output/pjrcUSB/arm/usb_serial.c.o
 .group         0x0000000000000000        0x8 CMakeFiles/kiibohd.elf.dir/Output/pjrcUSB/arm/usb_serial.c.o
 .text          0x0000000000000000        0x0 CMakeFiles/kiibohd.elf.dir/Output/pjrcUSB/arm/usb_serial.c.o
 .data          0x0000000000000000        0x0 CMakeFiles/kiibohd.elf.dir/Output/pjrcUSB/arm/usb_serial.c.o
 .bss           0x0000000000000000        0x0 CMakeFiles/kiibohd.elf.dir/Output/pjrcUSB/arm/usb_serial.c.o
 .text.usb_serial_peekchar
                0x0000000000000000       0x38 CMakeFiles/kiibohd.elf.dir/Output/pjrcUSB/arm/usb_serial.c.o
 .text.usb_serial_read
                0x0000000000000000       0x80 CMakeFiles/kiibohd.elf.dir/Output/pjrcUSB/arm/usb_serial.c.o
 .text.usb_serial_flush_input
                0x0000000000000000       0x30 CMakeFiles/kiibohd.elf.dir/Output/pjrcUSB/arm/usb_serial.c.o
 .text.usb_serial_putchar
                0x0000000000000000       0x16 CMakeFiles/kiibohd.elf.dir/Output/pjrcUSB/arm/usb_serial.c.o
 .text.usb_serial_flush_output
                0x0000000000000000       0x5c CMakeFiles/kiibohd.elf.dir/Output/pjrcUSB/arm/usb_serial.c.o
 .debug_macro   0x0000000000000000      0x886 CMakeFiles/kiibohd.elf.dir/Output/pjrcUSB/arm/usb_serial.c.o
 .debug_macro   0x0000000000000000       0xa2 CMakeFiles/kiibohd.elf.dir/Output/pjrcUSB/arm/usb_serial.c.o
 .debug_macro   0x0000000000000000       0x58 CMakeFiles/kiibohd.elf.dir/Output/pjrcUSB/arm/usb_serial.c.o
 .debug_macro   0x0000000000000000       0x22 CMakeFiles/kiibohd.elf.dir/Output/pjrcUSB/arm/usb_serial.c.o
 .debug_macro   0x0000000000000000       0x35 CMakeFiles/kiibohd.elf.dir/Output/pjrcUSB/arm/usb_serial.c.o
 .debug_macro   0x0000000000000000       0x9c CMakeFiles/kiibohd.elf.dir/Output/pjrcUSB/arm/usb_serial.c.o
 .debug_macro   0x0000000000000000      0x16d CMakeFiles/kiibohd.elf.dir/Output/pjrcUSB/arm/usb_serial.c.o
 .debug_macro   0x0000000000000000       0x4a CMakeFiles/kiibohd.elf.dir/Output/pjrcUSB/arm/usb_serial.c.o
 .debug_macro   0x0000000000000000       0x52 CMakeFiles/kiibohd.elf.dir/Output/pjrcUSB/arm/usb_serial.c.o
 .debug_macro   0x0000000000000000       0x16 CMakeFiles/kiibohd.elf.dir/Output/pjrcUSB/arm/usb_serial.c.o
 .debug_macro   0x0000000000000000       0x43 CMakeFiles/kiibohd.elf.dir/Output/pjrcUSB/arm/usb_serial.c.o
 .debug_macro   0x0000000000000000      0x180 CMakeFiles/kiibohd.elf.dir/Output/pjrcUSB/arm/usb_serial.c.o
 .debug_macro   0x0000000000000000      0x27a CMakeFiles/kiibohd.elf.dir/Output/pjrcUSB/arm/usb_serial.c.o
 .debug_macro   0x0000000000000000       0x10 CMakeFiles/kiibohd.elf.dir/Output/pjrcUSB/arm/usb_serial.c.o
 .debug_macro   0x0000000000000000       0x35 CMakeFiles/kiibohd.elf.dir/Output/pjrcUSB/arm/usb_serial.c.o
 .debug_macro   0x0000000000000000       0x10 CMakeFiles/kiibohd.elf.dir/Output/pjrcUSB/arm/usb_serial.c.o
 .debug_macro   0x0000000000000000       0xe3 CMakeFiles/kiibohd.elf.dir/Output/pjrcUSB/arm/usb_serial.c.o
 .debug_macro   0x0000000000000000       0x22 CMakeFiles/kiibohd.elf.dir/Output/pjrcUSB/arm/usb_serial.c.o
 .debug_macro   0x0000000000000000      0x1df CMakeFiles/kiibohd.elf.dir/Output/pjrcUSB/arm/usb_serial.c.o
 .debug_macro   0x0000000000000000     0x301e CMakeFiles/kiibohd.elf.dir/Output/pjrcUSB/arm/usb_serial.c.o
 .debug_macro   0x0000000000000000       0x10 CMakeFiles/kiibohd.elf.dir/Output/pjrcUSB/arm/usb_serial.c.o
 .debug_macro   0x0000000000000000       0x7c CMakeFiles/kiibohd.elf.dir/Output/pjrcUSB/arm/usb_serial.c.o
 .debug_macro   0x0000000000000000       0x10 CMakeFiles/kiibohd.elf.dir/Output/pjrcUSB/arm/usb_serial.c.o
 .debug_macro   0x0000000000000000      0x202 CMakeFiles/kiibohd.elf.dir/Output/pjrcUSB/arm/usb_serial.c.o
 .debug_macro   0x0000000000000000       0x10 CMakeFiles/kiibohd.elf.dir/Output/pjrcUSB/arm/usb_serial.c.o
 .debug_macro   0x0000000000000000      0x45d CMakeFiles/kiibohd.elf.dir/Output/pjrcUSB/arm/usb_serial.c.o
 .debug_macro   0x0000000000000000       0x22 CMakeFiles/kiibohd.elf.dir/Output/pjrcUSB/arm/usb_serial.c.o
 .group         0x0000000000000000        0x8 CMakeFiles/kiibohd.elf.dir/Debug/cli/cli.c.o
 .group         0x0000000000000000        0x8 CMakeFiles/kiibohd.elf.dir/Debug/cli/cli.c.o
 .group         0x0000000000000000        0x8 CMakeFiles/kiibohd.elf.dir/Debug/cli/cli.c.o
 .group         0x0000000000000000        0x8 CMakeFiles/kiibohd.elf.dir/Debug/cli/cli.c.o
 .group         0x0000000000000000        0x8 CMakeFiles/kiibohd.elf.dir/Debug/cli/cli.c.o
 .group         0x0000000000000000        0x8 CMakeFiles/kiibohd.elf.dir/Debug/cli/cli.c.o
 .group         0x0000000000000000        0x8 CMakeFiles/kiibohd.elf.dir/Debug/cli/cli.c.o
 .group         0x0000000000000000        0x8 CMakeFiles/kiibohd.elf.dir/Debug/cli/cli.c.o
 .group         0x0000000000000000        0x8 CMakeFiles/kiibohd.elf.dir/Debug/cli/cli.c.o
 .group         0x0000000000000000        0x8 CMakeFiles/kiibohd.elf.dir/Debug/cli/cli.c.o
 .group         0x0000000000000000        0x8 CMakeFiles/kiibohd.elf.dir/Debug/cli/cli.c.o
 .group         0x0000000000000000        0x8 CMakeFiles/kiibohd.elf.dir/Debug/cli/cli.c.o
 .group         0x0000000000000000        0x8 CMakeFiles/kiibohd.elf.dir/Debug/cli/cli.c.o
 .group         0x0000000000000000        0x8 CMakeFiles/kiibohd.elf.dir/Debug/cli/cli.c.o
 .text          0x0000000000000000        0x0 CMakeFiles/kiibohd.elf.dir/Debug/cli/cli.c.o
 .data          0x0000000000000000        0x0 CMakeFiles/kiibohd.elf.dir/Debug/cli/cli.c.o
 .bss           0x0000000000000000        0x0 CMakeFiles/kiibohd.elf.dir/Debug/cli/cli.c.o
 .debug_macro   0x0000000000000000      0x886 CMakeFiles/kiibohd.elf.dir/Debug/cli/cli.c.o
 .debug_macro   0x0000000000000000       0x7c CMakeFiles/kiibohd.elf.dir/Debug/cli/cli.c.o
 .debug_macro   0x0000000000000000       0x16 CMakeFiles/kiibohd.elf.dir/Debug/cli/cli.c.o
 .debug_macro   0x0000000000000000       0x22 CMakeFiles/kiibohd.elf.dir/Debug/cli/cli.c.o
 .debug_macro   0x0000000000000000       0x44 CMakeFiles/kiibohd.elf.dir/Debug/cli/cli.c.o
 .debug_macro   0x0000000000000000       0xe3 CMakeFiles/kiibohd.elf.dir/Debug/cli/cli.c.o
 .debug_macro   0x0000000000000000       0x22 CMakeFiles/kiibohd.elf.dir/Debug/cli/cli.c.o
 .debug_macro   0x0000000000000000      0x1df CMakeFiles/kiibohd.elf.dir/Debug/cli/cli.c.o
 .debug_macro   0x0000000000000000     0x301e CMakeFiles/kiibohd.elf.dir/Debug/cli/cli.c.o
 .debug_macro   0x0000000000000000       0x10 CMakeFiles/kiibohd.elf.dir/Debug/cli/cli.c.o
 .debug_macro   0x0000000000000000       0x10 CMakeFiles/kiibohd.elf.dir/Debug/cli/cli.c.o
 .debug_macro   0x0000000000000000       0x3a CMakeFiles/kiibohd.elf.dir/Debug/cli/cli.c.o
 .debug_macro   0x0000000000000000       0x9a CMakeFiles/kiibohd.elf.dir/Debug/cli/cli.c.o
 .debug_macro   0x0000000000000000       0xa2 CMakeFiles/kiibohd.elf.dir/Debug/cli/cli.c.o
 .group         0x0000000000000000        0x8 CMakeFiles/kiibohd.elf.dir/Debug/led/led.c.o
 .group         0x0000000000000000        0x8 CMakeFiles/kiibohd.elf.dir/Debug/led/led.c.o
 .group         0x0000000000000000        0x8 CMakeFiles/kiibohd.elf.dir/Debug/led/led.c.o
 .group         0x0000000000000000        0x8 CMakeFiles/kiibohd.elf.dir/Debug/led/led.c.o
 .group         0x0000000000000000        0x8 CMakeFiles/kiibohd.elf.dir/Debug/led/led.c.o
 .group         0x0000000000000000        0x8 CMakeFiles/kiibohd.elf.dir/Debug/led/led.c.o
 .group         0x0000000000000000        0x8 CMakeFiles/kiibohd.elf.dir/Debug/led/led.c.o
 .group         0x0000000000000000        0x8 CMakeFiles/kiibohd.elf.dir/Debug/led/led.c.o
 .group         0x0000000000000000        0x8 CMakeFiles/kiibohd.elf.dir/Debug/led/led.c.o
 .text          0x0000000000000000        0x0 CMakeFiles/kiibohd.elf.dir/Debug/led/led.c.o
 .data          0x0000000000000000        0x0 CMakeFiles/kiibohd.elf.dir/Debug/led/led.c.o
 .bss           0x0000000000000000        0x0 CMakeFiles/kiibohd.elf.dir/Debug/led/led.c.o
 .debug_macro   0x0000000000000000      0x886 CMakeFiles/kiibohd.elf.dir/Debug/led/led.c.o
 .debug_macro   0x0000000000000000       0x16 CMakeFiles/kiibohd.elf.dir/Debug/led/led.c.o
 .debug_macro   0x0000000000000000       0x22 CMakeFiles/kiibohd.elf.dir/Debug/led/led.c.o
 .debug_macro   0x0000000000000000       0x44 CMakeFiles/kiibohd.elf.dir/Debug/led/led.c.o
 .debug_macro   0x0000000000000000       0xe3 CMakeFiles/kiibohd.elf.dir/Debug/led/led.c.o
 .debug_macro   0x0000000000000000       0x22 CMakeFiles/kiibohd.elf.dir/Debug/led/led.c.o
 .debug_macro   0x0000000000000000      0x1df CMakeFiles/kiibohd.elf.dir/Debug/led/led.c.o
 .debug_macro   0x0000000000000000     0x301e CMakeFiles/kiibohd.elf.dir/Debug/led/led.c.o
 .debug_macro   0x0000000000000000       0x10 CMakeFiles/kiibohd.elf.dir/Debug/led/led.c.o
 .group         0x0000000000000000        0x8 CMakeFiles/kiibohd.elf.dir/Debug/print/print.c.o
 .group         0x0000000000000000        0x8 CMakeFiles/kiibohd.elf.dir/Debug/print/print.c.o
 .group         0x0000000000000000        0x8 CMakeFiles/kiibohd.elf.dir/Debug/print/print.c.o
 .group         0x0000000000000000        0x8 CMakeFiles/kiibohd.elf.dir/Debug/print/print.c.o
 .group         0x0000000000000000        0x8 CMakeFiles/kiibohd.elf.dir/Debug/print/print.c.o
 .group         0x0000000000000000        0x8 CMakeFiles/kiibohd.elf.dir/Debug/print/print.c.o
 .group         0x0000000000000000        0x8 CMakeFiles/kiibohd.elf.dir/Debug/print/print.c.o
 .group         0x0000000000000000        0x8 CMakeFiles/kiibohd.elf.dir/Debug/print/print.c.o
 .group         0x0000000000000000        0x8 CMakeFiles/kiibohd.elf.dir/Debug/print/print.c.o
 .group         0x0000000000000000        0x8 CMakeFiles/kiibohd.elf.dir/Debug/print/print.c.o
 .text          0x0000000000000000        0x0 CMakeFiles/kiibohd.elf.dir/Debug/print/print.c.o
 .data          0x0000000000000000        0x0 CMakeFiles/kiibohd.elf.dir/Debug/print/print.c.o
 .bss           0x0000000000000000        0x0 CMakeFiles/kiibohd.elf.dir/Debug/print/print.c.o
 .debug_macro   0x0000000000000000      0x886 CMakeFiles/kiibohd.elf.dir/Debug/print/print.c.o
 .debug_macro   0x0000000000000000       0x22 CMakeFiles/kiibohd.elf.dir/Debug/print/print.c.o
 .debug_macro   0x0000000000000000       0x44 CMakeFiles/kiibohd.elf.dir/Debug/print/print.c.o
 .debug_macro   0x0000000000000000       0xe3 CMakeFiles/kiibohd.elf.dir/Debug/print/print.c.o
 .debug_macro   0x0000000000000000       0x22 CMakeFiles/kiibohd.elf.dir/Debug/print/print.c.o
 .debug_macro   0x0000000000000000      0x1df CMakeFiles/kiibohd.elf.dir/Debug/print/print.c.o
 .debug_macro   0x0000000000000000       0x7c CMakeFiles/kiibohd.elf.dir/Debug/print/print.c.o
 .debug_macro   0x0000000000000000       0x10 CMakeFiles/kiibohd.elf.dir/Debug/print/print.c.o
 .debug_macro   0x0000000000000000       0x9a CMakeFiles/kiibohd.elf.dir/Debug/print/print.c.o

Memory Configuration

Name             Origin             Length             Attributes
FLASH            0x0000000000002000 0x000000000003e000 xr
RAM              0x000000001fff8000 0x0000000000010000 xrw
*default*        0x0000000000000000 0xffffffffffffffff

Linker script and memory map

LOAD CMakeFiles/kiibohd.elf.dir/main.c.o
LOAD CMakeFiles/kiibohd.elf.dir/Lib/mk20dx.c.o
LOAD CMakeFiles/kiibohd.elf.dir/Lib/delay.c.o
LOAD CMakeFiles/kiibohd.elf.dir/Scan/ISSILed/led_scan.c.o
LOAD CMakeFiles/kiibohd.elf.dir/Scan/MatrixARM/matrix_scan.c.o
LOAD CMakeFiles/kiibohd.elf.dir/Scan/WhiteFox/scan_loop.c.o
LOAD CMakeFiles/kiibohd.elf.dir/Macro/PartialMap/macro.c.o
LOAD CMakeFiles/kiibohd.elf.dir/Macro/PartialMap/result.c.o
LOAD CMakeFiles/kiibohd.elf.dir/Macro/PartialMap/trigger.c.o
LOAD CMakeFiles/kiibohd.elf.dir/Output/pjrcUSB/output_com.c.o
LOAD CMakeFiles/kiibohd.elf.dir/Output/pjrcUSB/arm/usb_desc.c.o
LOAD CMakeFiles/kiibohd.elf.dir/Output/pjrcUSB/arm/usb_dev.c.o
LOAD CMakeFiles/kiibohd.elf.dir/Output/pjrcUSB/arm/usb_joystick.c.o
LOAD CMakeFiles/kiibohd.elf.dir/Output/pjrcUSB/arm/usb_keyboard.c.o
LOAD CMakeFiles/kiibohd.elf.dir/Output/pjrcUSB/arm/usb_mem.c.o
LOAD CMakeFiles/kiibohd.elf.dir/Output/pjrcUSB/arm/usb_mouse.c.o
LOAD CMakeFiles/kiibohd.elf.dir/Output/pjrcUSB/arm/usb_rawio.c.o
LOAD CMakeFiles/kiibohd.elf.dir/Output/pjrcUSB/arm/usb_serial.c.o
LOAD CMakeFiles/kiibohd.elf.dir/Debug/cli/cli.c.o
LOAD CMakeFiles/kiibohd.elf.dir/Debug/led/led.c.o
LOAD CMakeFiles/kiibohd.elf.dir/Debug/print/print.c.o
                0x0000000000002000                _app_rom = ORIGIN (FLASH)
                0x0000000000040000                _app_rom_end = (ORIGIN (FLASH) + LENGTH (FLASH))

.text           0x0000000000002000     0x7a24
                0x0000000000000000                . = 0x0
 *(.vectors)
 .vectors       0x0000000000002000      0x1bc CMakeFiles/kiibohd.elf.dir/Lib/mk20dx.c.o
                0x0000000000002000                gVectors
 *(.startup*)
 .startup       0x00000000000021bc      0x14c CMakeFiles/kiibohd.elf.dir/Lib/mk20dx.c.o
                0x00000000000021bc                ResetHandler
                0x0000000000000400                . = 0x400
 *fill*         0x0000000000002308       0xf8 
 *(.flashconfig)
 *(.text*)
 .text.startup.main
                0x0000000000002400       0x2c CMakeFiles/kiibohd.elf.dir/main.c.o
                0x0000000000002400                main
 .text.systick_default_isr
                0x000000000000242c       0x10 CMakeFiles/kiibohd.elf.dir/Lib/mk20dx.c.o
                0x000000000000242c                systick_isr
                0x000000000000242c                systick_default_isr
 .text.fault_isr
                0x000000000000243c       0x3c CMakeFiles/kiibohd.elf.dir/Lib/mk20dx.c.o
                0x000000000000243c                fault_isr
 .text.unused_isr
                0x0000000000002478        0x6 CMakeFiles/kiibohd.elf.dir/Lib/mk20dx.c.o
                0x0000000000002478                adc0_isr
                0x0000000000002478                dma_ch6_isr
                0x0000000000002478                uart0_lon_isr
                0x0000000000002478                dma_ch8_isr
                0x0000000000002478                dma_error_isr
                0x0000000000002478                portd_isr
                0x0000000000002478                porte_isr
                0x0000000000002478                portb_isr
                0x0000000000002478                spi1_isr
                0x0000000000002478                uart3_status_isr
                0x0000000000002478                mcm_isr
                0x0000000000002478                uart1_status_isr
                0x0000000000002478                watchdog_isr
                0x0000000000002478                i2c1_isr
                0x0000000000002478                dma_ch11_isr
                0x0000000000002478                i2c2_isr
                0x0000000000002478                pit1_isr
                0x0000000000002478                dma_ch4_isr
                0x0000000000002478                software_isr
                0x0000000000002478                dma_ch7_isr
                0x0000000000002478                lptmr_isr
                0x0000000000002478                ftm2_isr
                0x0000000000002478                uart5_status_isr
                0x0000000000002478                dma_ch9_isr
                0x0000000000002478                pit2_isr
                0x0000000000002478                pit0_isr
                0x0000000000002478                can0_wakeup_isr
                0x0000000000002478                flash_cmd_isr
                0x0000000000002478                uart2_status_isr
                0x0000000000002478                svcall_isr
                0x0000000000002478                dma_ch15_isr
                0x0000000000002478                uart1_error_isr
                0x0000000000002478                unused_isr
                0x0000000000002478                spi0_isr
                0x0000000000002478                dma_ch3_isr
                0x0000000000002478                flash_error_isr
                0x0000000000002478                uart5_error_isr
                0x0000000000002478                rtc_seconds_isr
                0x0000000000002478                pdb_isr
                0x0000000000002478                dac1_isr
                0x0000000000002478                dma_ch14_isr
                0x0000000000002478                rtc_alarm_isr
                0x0000000000002478                dma_ch2_isr
                0x0000000000002478                ftm1_isr
                0x0000000000002478                dma_ch13_isr
                0x0000000000002478                uart2_error_isr
                0x0000000000002478                usb_charge_isr
                0x0000000000002478                cmt_isr
                0x0000000000002478                ftm3_isr
                0x0000000000002478                tsi0_isr
                0x0000000000002478                spi2_isr
                0x0000000000002478                can0_bus_off_isr
                0x0000000000002478                uart3_error_isr
                0x0000000000002478                porta_isr
                0x0000000000002478                low_voltage_isr
                0x0000000000002478                can0_error_isr
                0x0000000000002478                dma_ch12_isr
                0x0000000000002478                pit3_isr
                0x0000000000002478                portc_isr
                0x0000000000002478                debugmonitor_isr
                0x0000000000002478                cmp1_isr
                0x0000000000002478                ftm0_isr
                0x0000000000002478                i2s0_rx_isr
                0x0000000000002478                uart4_error_isr
                0x0000000000002478                can0_message_isr
                0x0000000000002478                sdhc_isr
                0x0000000000002478                dma_ch10_isr
                0x0000000000002478                uart0_error_isr
                0x0000000000002478                i2s0_tx_isr
                0x0000000000002478                adc1_isr
                0x0000000000002478                cmp0_isr
                0x0000000000002478                dac0_isr
                0x0000000000002478                uart0_status_isr
                0x0000000000002478                mcg_isr
                0x0000000000002478                dma_ch1_isr
                0x0000000000002478                dma_ch5_isr
                0x0000000000002478                can0_rx_warn_isr
                0x0000000000002478                can0_tx_warn_isr
                0x0000000000002478                uart4_status_isr
                0x0000000000002478                cmp2_isr
                0x0000000000002478                pendablesrvreq_isr
                0x0000000000002478                wakeup_isr
                0x0000000000002478                dma_ch0_isr
 *fill*         0x000000000000247e        0x2 
 .text.nmi_default_isr
                0x0000000000002480        0xc CMakeFiles/kiibohd.elf.dir/Lib/mk20dx.c.o
                0x0000000000002480                nmi_isr
                0x0000000000002480                nmi_default_isr
 .text.hard_fault_default_isr
                0x000000000000248c       0x34 CMakeFiles/kiibohd.elf.dir/Lib/mk20dx.c.o
                0x000000000000248c                hard_fault_isr
                0x000000000000248c                hard_fault_default_isr
 .text.memmanage_fault_default_isr
                0x00000000000024c0       0x40 CMakeFiles/kiibohd.elf.dir/Lib/mk20dx.c.o
                0x00000000000024c0                memmanage_fault_default_isr
                0x00000000000024c0                memmanage_fault_isr
 .text.bus_fault_default_isr
                0x0000000000002500       0x40 CMakeFiles/kiibohd.elf.dir/Lib/mk20dx.c.o
                0x0000000000002500                bus_fault_isr
                0x0000000000002500                bus_fault_default_isr
 .text.usage_fault_default_isr
                0x0000000000002540       0x28 CMakeFiles/kiibohd.elf.dir/Lib/mk20dx.c.o
                0x0000000000002540                usage_fault_default_isr
                0x0000000000002540                usage_fault_isr
 .text.memset   0x0000000000002568       0x10 CMakeFiles/kiibohd.elf.dir/Lib/mk20dx.c.o
                0x0000000000002568                memset
 .text.memcpy   0x0000000000002578       0x18 CMakeFiles/kiibohd.elf.dir/Lib/mk20dx.c.o
                0x0000000000002578                memcpy
 .text.yield    0x0000000000002590        0x2 CMakeFiles/kiibohd.elf.dir/Lib/delay.c.o
                0x0000000000002590                yield
 *fill*         0x0000000000002592        0x2 
 .text.micros   0x0000000000002594       0x44 CMakeFiles/kiibohd.elf.dir/Lib/delay.c.o
                0x0000000000002594                micros
 .text.delay    0x00000000000025d8       0x26 CMakeFiles/kiibohd.elf.dir/Lib/delay.c.o
                0x00000000000025d8                delay
 .text.I2C_BufferLen
                0x00000000000025fe       0x14 CMakeFiles/kiibohd.elf.dir/Scan/ISSILed/led_scan.c.o
                0x00000000000025fe                I2C_BufferLen
 *fill*         0x0000000000002612        0x2 
 .text.I2C_BufferPush
                0x0000000000002614       0x60 CMakeFiles/kiibohd.elf.dir/Scan/ISSILed/led_scan.c.o
                0x0000000000002614                I2C_BufferPush
 .text.I2C_TxBufferPop
                0x0000000000002674       0xa4 CMakeFiles/kiibohd.elf.dir/Scan/ISSILed/led_scan.c.o
                0x0000000000002674                I2C_TxBufferPop
 .text.i2c0_isr
                0x0000000000002718      0x118 CMakeFiles/kiibohd.elf.dir/Scan/ISSILed/led_scan.c.o
                0x0000000000002718                i2c0_isr
 .text.I2C_Send
                0x0000000000002830       0xe0 CMakeFiles/kiibohd.elf.dir/Scan/ISSILed/led_scan.c.o
                0x0000000000002830                I2C_Send
 .text.LED_zeroPages
                0x0000000000002910       0x74 CMakeFiles/kiibohd.elf.dir/Scan/ISSILed/led_scan.c.o
                0x0000000000002910                LED_zeroPages
 .text.cliFunc_ledZero
                0x0000000000002984       0x1c CMakeFiles/kiibohd.elf.dir/Scan/ISSILed/led_scan.c.o
                0x0000000000002984                cliFunc_ledZero
 .text.LED_sendPage
                0x00000000000029a0       0x42 CMakeFiles/kiibohd.elf.dir/Scan/ISSILed/led_scan.c.o
                0x00000000000029a0                LED_sendPage
 *fill*         0x00000000000029e2        0x2 
 .text.cliFunc_ledTest
                0x00000000000029e4       0x20 CMakeFiles/kiibohd.elf.dir/Scan/ISSILed/led_scan.c.o
                0x00000000000029e4                cliFunc_ledTest
 .text.LED_writeReg
                0x0000000000002a04       0x4a CMakeFiles/kiibohd.elf.dir/Scan/ISSILed/led_scan.c.o
                0x0000000000002a04                LED_writeReg
 *fill*         0x0000000000002a4e        0x2 
 .text.LED_setup
                0x0000000000002a50       0xc4 CMakeFiles/kiibohd.elf.dir/Scan/ISSILed/led_scan.c.o
                0x0000000000002a50                LED_setup
 .text.cliFunc_ledStart
                0x0000000000002b14       0x34 CMakeFiles/kiibohd.elf.dir/Scan/ISSILed/led_scan.c.o
                0x0000000000002b14                cliFunc_ledStart
 .text.LED_readPage
                0x0000000000002b48       0x98 CMakeFiles/kiibohd.elf.dir/Scan/ISSILed/led_scan.c.o
                0x0000000000002b48                LED_readPage
 .text.cliFunc_ledRPage
                0x0000000000002be0       0x2c CMakeFiles/kiibohd.elf.dir/Scan/ISSILed/led_scan.c.o
                0x0000000000002be0                cliFunc_ledRPage
 .text.cliFunc_i2cSend
                0x0000000000002c0c       0x88 CMakeFiles/kiibohd.elf.dir/Scan/ISSILed/led_scan.c.o
                0x0000000000002c0c                cliFunc_i2cSend
 .text.cliFunc_i2cRecv
                0x0000000000002c94       0x88 CMakeFiles/kiibohd.elf.dir/Scan/ISSILed/led_scan.c.o
                0x0000000000002c94                cliFunc_i2cRecv
 .text.cliFunc_ledWPage
                0x0000000000002d1c       0x9a CMakeFiles/kiibohd.elf.dir/Scan/ISSILed/led_scan.c.o
                0x0000000000002d1c                cliFunc_ledWPage
 *fill*         0x0000000000002db6        0x2 
 .text.LED_scan
                0x0000000000002db8       0x28 CMakeFiles/kiibohd.elf.dir/Scan/ISSILed/led_scan.c.o
                0x0000000000002db8                LED_scan
 .text.LED_currentChange
                0x0000000000002de0        0xc CMakeFiles/kiibohd.elf.dir/Scan/ISSILed/led_scan.c.o
                0x0000000000002de0                LED_currentChange
 .text.LED_control
                0x0000000000002dec       0x98 CMakeFiles/kiibohd.elf.dir/Scan/ISSILed/led_scan.c.o
                0x0000000000002dec                LED_control
 .text.cliFunc_ledCtrl
                0x0000000000002e84       0x5c CMakeFiles/kiibohd.elf.dir/Scan/ISSILed/led_scan.c.o
                0x0000000000002e84                cliFunc_ledCtrl
 .text.LED_control_capability
                0x0000000000002ee0       0x48 CMakeFiles/kiibohd.elf.dir/Scan/ISSILed/led_scan.c.o
                0x0000000000002ee0                LED_control_capability
 .text.cliFunc_matrixInfo
                0x0000000000002f28       0x54 CMakeFiles/kiibohd.elf.dir/Scan/MatrixARM/matrix_scan.c.o
                0x0000000000002f28                cliFunc_matrixInfo
 .text.cliFunc_matrixState
                0x0000000000002f7c       0x24 CMakeFiles/kiibohd.elf.dir/Scan/MatrixARM/matrix_scan.c.o
                0x0000000000002f7c                cliFunc_matrixState
 .text.cliFunc_matrixDebug
                0x0000000000002fa0       0x5c CMakeFiles/kiibohd.elf.dir/Scan/MatrixARM/matrix_scan.c.o
                0x0000000000002fa0                cliFunc_matrixDebug
 .text.Matrix_pin
                0x0000000000002ffc       0xc8 CMakeFiles/kiibohd.elf.dir/Scan/MatrixARM/matrix_scan.c.o
                0x0000000000002ffc                Matrix_pin
 .text.Matrix_setup
                0x00000000000030c4       0x98 CMakeFiles/kiibohd.elf.dir/Scan/MatrixARM/matrix_scan.c.o
                0x00000000000030c4                Matrix_setup
 .text.Matrix_keyPositionDebug
                0x000000000000315c       0x38 CMakeFiles/kiibohd.elf.dir/Scan/MatrixARM/matrix_scan.c.o
                0x000000000000315c                Matrix_keyPositionDebug
 .text.Matrix_scan
                0x0000000000003194      0x2cc CMakeFiles/kiibohd.elf.dir/Scan/MatrixARM/matrix_scan.c.o
                0x0000000000003194                Matrix_scan
 .text.Matrix_currentChange
                0x0000000000003460        0x2 CMakeFiles/kiibohd.elf.dir/Scan/MatrixARM/matrix_scan.c.o
                0x0000000000003460                Matrix_currentChange
 *fill*         0x0000000000003462        0x2 
 .text.Scan_setup
                0x0000000000003464       0x18 CMakeFiles/kiibohd.elf.dir/Scan/WhiteFox/scan_loop.c.o
                0x0000000000003464                Scan_setup
 .text.Scan_loop
                0x000000000000347c       0x1c CMakeFiles/kiibohd.elf.dir/Scan/WhiteFox/scan_loop.c.o
                0x000000000000347c                Scan_loop
 .text.Scan_finishedWithMacro
                0x0000000000003498        0x2 CMakeFiles/kiibohd.elf.dir/Scan/WhiteFox/scan_loop.c.o
                0x0000000000003498                Scan_finishedWithMacro
 *fill*         0x000000000000349a        0x2 
 .text.Scan_finishedWithOutput
                0x000000000000349c        0xc CMakeFiles/kiibohd.elf.dir/Scan/WhiteFox/scan_loop.c.o
                0x000000000000349c                Scan_finishedWithOutput
 .text.Scan_currentChange
                0x00000000000034a8       0x12 CMakeFiles/kiibohd.elf.dir/Scan/WhiteFox/scan_loop.c.o
                0x00000000000034a8                Scan_currentChange
 *fill*         0x00000000000034ba        0x2 
 .text.cliFunc_capList
                0x00000000000034bc       0x58 CMakeFiles/kiibohd.elf.dir/Macro/PartialMap/macro.c.o
                0x00000000000034bc                cliFunc_capList
 .text.cliFunc_macroStep
                0x0000000000003514       0x28 CMakeFiles/kiibohd.elf.dir/Macro/PartialMap/macro.c.o
                0x0000000000003514                cliFunc_macroStep
 .text.cliFunc_capSelect
                0x000000000000353c      0x104 CMakeFiles/kiibohd.elf.dir/Macro/PartialMap/macro.c.o
                0x000000000000353c                cliFunc_capSelect
 .text.cliFunc_layerDebug
                0x0000000000003640       0x30 CMakeFiles/kiibohd.elf.dir/Macro/PartialMap/macro.c.o
                0x0000000000003640                cliFunc_layerDebug
 .text.cliFunc_layerState
                0x0000000000003670       0x68 CMakeFiles/kiibohd.elf.dir/Macro/PartialMap/macro.c.o
                0x0000000000003670                cliFunc_layerState
 .text.cliFunc_macroDebug
                0x00000000000036d8       0x30 CMakeFiles/kiibohd.elf.dir/Macro/PartialMap/macro.c.o
                0x00000000000036d8                cliFunc_macroDebug
 .text.cliFunc_macroProc
                0x0000000000003708       0x30 CMakeFiles/kiibohd.elf.dir/Macro/PartialMap/macro.c.o
                0x0000000000003708                cliFunc_macroProc
 .text.cliFunc_layerList
                0x0000000000003738       0xe0 CMakeFiles/kiibohd.elf.dir/Macro/PartialMap/macro.c.o
                0x0000000000003738                cliFunc_layerList
 .text.cliFunc_macroList
                0x0000000000003818      0x164 CMakeFiles/kiibohd.elf.dir/Macro/PartialMap/macro.c.o
                0x0000000000003818                cliFunc_macroList
 .text.Macro_layerState.part.0
                0x000000000000397c       0xcc CMakeFiles/kiibohd.elf.dir/Macro/PartialMap/macro.c.o
 .text.Macro_layerState_capability
                0x0000000000003a48       0x28 CMakeFiles/kiibohd.elf.dir/Macro/PartialMap/macro.c.o
                0x0000000000003a48                Macro_layerState_capability
 .text.Macro_layerShift_capability
                0x0000000000003a70       0x3c CMakeFiles/kiibohd.elf.dir/Macro/PartialMap/macro.c.o
                0x0000000000003a70                Macro_layerShift_capability
 .text.Macro_layerLatch_capability
                0x0000000000003aac       0x28 CMakeFiles/kiibohd.elf.dir/Macro/PartialMap/macro.c.o
                0x0000000000003aac                Macro_layerLatch_capability
 .text.Macro_layerLock_capability
                0x0000000000003ad4       0x28 CMakeFiles/kiibohd.elf.dir/Macro/PartialMap/macro.c.o
                0x0000000000003ad4                Macro_layerLock_capability
 .text.Macro_layerRotate_capability
                0x0000000000003afc       0x64 CMakeFiles/kiibohd.elf.dir/Macro/PartialMap/macro.c.o
                0x0000000000003afc                Macro_layerRotate_capability
 .text.Macro_layerLookup
                0x0000000000003b60      0x11c CMakeFiles/kiibohd.elf.dir/Macro/PartialMap/macro.c.o
                0x0000000000003b60                Macro_layerLookup
 .text.Macro_keyState
                0x0000000000003c7c       0x50 CMakeFiles/kiibohd.elf.dir/Macro/PartialMap/macro.c.o
                0x0000000000003c7c                Macro_keyState
 .text.cliFunc_keyHold
                0x0000000000003ccc       0x2e CMakeFiles/kiibohd.elf.dir/Macro/PartialMap/macro.c.o
                0x0000000000003ccc                cliFunc_keyHold
 .text.cliFunc_keyPress
                0x0000000000003cfa       0x2e CMakeFiles/kiibohd.elf.dir/Macro/PartialMap/macro.c.o
                0x0000000000003cfa                cliFunc_keyPress
 .text.cliFunc_keyRelease
                0x0000000000003d28       0x2e CMakeFiles/kiibohd.elf.dir/Macro/PartialMap/macro.c.o
                0x0000000000003d28                cliFunc_keyRelease
 *fill*         0x0000000000003d56        0x2 
 .text.Macro_appendResultMacroToPendingList
                0x0000000000003d58       0x98 CMakeFiles/kiibohd.elf.dir/Macro/PartialMap/macro.c.o
                0x0000000000003d58                Macro_appendResultMacroToPendingList
 .text.Macro_process
                0x0000000000003df0       0x58 CMakeFiles/kiibohd.elf.dir/Macro/PartialMap/macro.c.o
                0x0000000000003df0                Macro_process
 .text.Macro_setup
                0x0000000000003e48       0x48 CMakeFiles/kiibohd.elf.dir/Macro/PartialMap/macro.c.o
                0x0000000000003e48                Macro_setup
 .text.macroDebugShowTrigger
                0x0000000000003e90      0x110 CMakeFiles/kiibohd.elf.dir/Macro/PartialMap/macro.c.o
                0x0000000000003e90                macroDebugShowTrigger
 .text.macroDebugShowResult
                0x0000000000003fa0      0x178 CMakeFiles/kiibohd.elf.dir/Macro/PartialMap/macro.c.o
                0x0000000000003fa0                macroDebugShowResult
 .text.cliFunc_macroShow
                0x0000000000004118       0x3e CMakeFiles/kiibohd.elf.dir/Macro/PartialMap/macro.c.o
                0x0000000000004118                cliFunc_macroShow
 *fill*         0x0000000000004156        0x2 
 .text.Macro_evalResultMacro
                0x0000000000004158       0x8c CMakeFiles/kiibohd.elf.dir/Macro/PartialMap/result.c.o
                0x0000000000004158                Macro_evalResultMacro
 .text.Result_setup
                0x00000000000041e4       0x28 CMakeFiles/kiibohd.elf.dir/Macro/PartialMap/result.c.o
                0x00000000000041e4                Result_setup
 .text.Result_process
                0x000000000000420c       0x4c CMakeFiles/kiibohd.elf.dir/Macro/PartialMap/result.c.o
                0x000000000000420c                Result_process
 .text.Macro_evalTriggerMacro
                0x0000000000004258      0x260 CMakeFiles/kiibohd.elf.dir/Macro/PartialMap/trigger.c.o
                0x0000000000004258                Macro_evalTriggerMacro
 .text.Trigger_setup
                0x00000000000044b8       0x1c CMakeFiles/kiibohd.elf.dir/Macro/PartialMap/trigger.c.o
                0x00000000000044b8                Trigger_setup
 .text.Trigger_process
                0x00000000000044d4       0xf8 CMakeFiles/kiibohd.elf.dir/Macro/PartialMap/trigger.c.o
                0x00000000000044d4                Trigger_process
 .text.cliFunc_sendKeys
                0x00000000000045cc       0x24 CMakeFiles/kiibohd.elf.dir/Output/pjrcUSB/output_com.c.o
                0x00000000000045cc                cliFunc_sendKeys
 .text.cliFunc_setKeys
                0x00000000000045f0       0x34 CMakeFiles/kiibohd.elf.dir/Output/pjrcUSB/output_com.c.o
                0x00000000000045f0                cliFunc_setKeys
 .text.cliFunc_outputDebug
                0x0000000000004624       0x24 CMakeFiles/kiibohd.elf.dir/Output/pjrcUSB/output_com.c.o
                0x0000000000004624                cliFunc_outputDebug
 .text.cliFunc_setMod
                0x0000000000004648       0x20 CMakeFiles/kiibohd.elf.dir/Output/pjrcUSB/output_com.c.o
                0x0000000000004648                cliFunc_setMod
 .text.cliFunc_readLEDs
                0x0000000000004668       0x28 CMakeFiles/kiibohd.elf.dir/Output/pjrcUSB/output_com.c.o
                0x0000000000004668                cliFunc_readLEDs
 .text.cliFunc_usbInitTime
                0x0000000000004690       0x54 CMakeFiles/kiibohd.elf.dir/Output/pjrcUSB/output_com.c.o
                0x0000000000004690                cliFunc_usbInitTime
 .text.cliFunc_kbdProtocol
                0x00000000000046e4       0x54 CMakeFiles/kiibohd.elf.dir/Output/pjrcUSB/output_com.c.o
                0x00000000000046e4                cliFunc_kbdProtocol
 .text.Output_consCtrlSend_capability
                0x0000000000004738       0x44 CMakeFiles/kiibohd.elf.dir/Output/pjrcUSB/output_com.c.o
                0x0000000000004738                Output_consCtrlSend_capability
 .text.Output_noneSend_capability
                0x000000000000477c       0x14 CMakeFiles/kiibohd.elf.dir/Output/pjrcUSB/output_com.c.o
                0x000000000000477c                Output_noneSend_capability
 .text.Output_sysCtrlSend_capability
                0x0000000000004790       0x44 CMakeFiles/kiibohd.elf.dir/Output/pjrcUSB/output_com.c.o
                0x0000000000004790                Output_sysCtrlSend_capability
 .text.Output_flashMode_capability
                0x00000000000047d4       0x18 CMakeFiles/kiibohd.elf.dir/Output/pjrcUSB/output_com.c.o
                0x00000000000047d4                Output_flashMode_capability
 .text.Output_usbMouse_capability
                0x00000000000047ec       0x84 CMakeFiles/kiibohd.elf.dir/Output/pjrcUSB/output_com.c.o
                0x00000000000047ec                Output_usbMouse_capability
 .text.Output_flushBuffers
                0x0000000000004870       0x3c CMakeFiles/kiibohd.elf.dir/Output/pjrcUSB/output_com.c.o
                0x0000000000004870                Output_flushBuffers
 .text.Output_kbdProtocolBoot_capability
                0x00000000000048ac       0x30 CMakeFiles/kiibohd.elf.dir/Output/pjrcUSB/output_com.c.o
                0x00000000000048ac                Output_kbdProtocolBoot_capability
 .text.Output_kbdProtocolNKRO_capability
                0x00000000000048dc       0x34 CMakeFiles/kiibohd.elf.dir/Output/pjrcUSB/output_com.c.o
                0x00000000000048dc                Output_kbdProtocolNKRO_capability
 .text.Output_toggleKbdProtocol_capability
                0x0000000000004910       0x34 CMakeFiles/kiibohd.elf.dir/Output/pjrcUSB/output_com.c.o
                0x0000000000004910                Output_toggleKbdProtocol_capability
 .text.Output_usbCodeSend_capability
                0x0000000000004944      0x1f8 CMakeFiles/kiibohd.elf.dir/Output/pjrcUSB/output_com.c.o
                0x0000000000004944                Output_usbCodeSend_capability
 .text.Output_setup
                0x0000000000004b3c       0x20 CMakeFiles/kiibohd.elf.dir/Output/pjrcUSB/output_com.c.o
                0x0000000000004b3c                Output_setup
 .text.Output_send
                0x0000000000004b5c       0x74 CMakeFiles/kiibohd.elf.dir/Output/pjrcUSB/output_com.c.o
                0x0000000000004b5c                Output_send
 .text.Output_availablechar
                0x0000000000004bd0        0x4 CMakeFiles/kiibohd.elf.dir/Output/pjrcUSB/output_com.c.o
                0x0000000000004bd0                Output_availablechar
 .text.Output_getchar
                0x0000000000004bd4        0x4 CMakeFiles/kiibohd.elf.dir/Output/pjrcUSB/output_com.c.o
                0x0000000000004bd4                Output_getchar
 .text.Output_putstr
                0x0000000000004bd8       0x10 CMakeFiles/kiibohd.elf.dir/Output/pjrcUSB/output_com.c.o
                0x0000000000004bd8                Output_putstr
 .text.Output_softReset
                0x0000000000004be8       0x10 CMakeFiles/kiibohd.elf.dir/Output/pjrcUSB/output_com.c.o
                0x0000000000004be8                Output_softReset
 .text.Output_current_available
                0x0000000000004bf8       0x18 CMakeFiles/kiibohd.elf.dir/Output/pjrcUSB/output_com.c.o
                0x0000000000004bf8                Output_current_available
 .text.Output_update_usb_current
                0x0000000000004c10       0x20 CMakeFiles/kiibohd.elf.dir/Output/pjrcUSB/output_com.c.o
                0x0000000000004c10                Output_update_usb_current
 .text.usb_set_config_descriptor_size
                0x0000000000004c30       0x10 CMakeFiles/kiibohd.elf.dir/Output/pjrcUSB/arm/usb_desc.c.o
                0x0000000000004c30                usb_set_config_descriptor_size
 .text.endpoint0_transmit
                0x0000000000004c40       0x40 CMakeFiles/kiibohd.elf.dir/Output/pjrcUSB/arm/usb_dev.c.o
 .text.usb_device_check
                0x0000000000004c80       0x30 CMakeFiles/kiibohd.elf.dir/Output/pjrcUSB/arm/usb_dev.c.o
                0x0000000000004c80                usb_device_check
 .text.usb_rx   0x0000000000004cb0       0x38 CMakeFiles/kiibohd.elf.dir/Output/pjrcUSB/arm/usb_dev.c.o
                0x0000000000004cb0                usb_rx
 .text.usb_tx_packet_count
                0x0000000000004ce8       0x24 CMakeFiles/kiibohd.elf.dir/Output/pjrcUSB/arm/usb_dev.c.o
                0x0000000000004ce8                usb_tx_packet_count
 .text.usb_rx_memory
                0x0000000000004d0c       0x78 CMakeFiles/kiibohd.elf.dir/Output/pjrcUSB/arm/usb_dev.c.o
                0x0000000000004d0c                usb_rx_memory
 .text.usb_resume
                0x0000000000004d84       0x44 CMakeFiles/kiibohd.elf.dir/Output/pjrcUSB/arm/usb_dev.c.o
                0x0000000000004d84                usb_resume
 .text.usb_tx   0x0000000000004dc8       0xa4 CMakeFiles/kiibohd.elf.dir/Output/pjrcUSB/arm/usb_dev.c.o
                0x0000000000004dc8                usb_tx
 .text.usb_device_reload
                0x0000000000004e6c       0x34 CMakeFiles/kiibohd.elf.dir/Output/pjrcUSB/arm/usb_dev.c.o
                0x0000000000004e6c                usb_device_reload
 .text.usb_isr  0x0000000000004ea0      0x84c CMakeFiles/kiibohd.elf.dir/Output/pjrcUSB/arm/usb_dev.c.o
                0x0000000000004ea0                usb_isr
 .text.usb_init
                0x00000000000056ec      0x11c CMakeFiles/kiibohd.elf.dir/Output/pjrcUSB/arm/usb_dev.c.o
                0x00000000000056ec                usb_init
 .text.usb_keyboard_send
                0x0000000000005808      0x2d4 CMakeFiles/kiibohd.elf.dir/Output/pjrcUSB/arm/usb_keyboard.c.o
                0x0000000000005808                usb_keyboard_send
 .text.usb_malloc
                0x0000000000005adc       0x3c CMakeFiles/kiibohd.elf.dir/Output/pjrcUSB/arm/usb_mem.c.o
                0x0000000000005adc                usb_malloc
 .text.usb_free
                0x0000000000005b18       0x44 CMakeFiles/kiibohd.elf.dir/Output/pjrcUSB/arm/usb_mem.c.o
                0x0000000000005b18                usb_free
 .text.usb_mouse_send
                0x0000000000005b5c       0xa8 CMakeFiles/kiibohd.elf.dir/Output/pjrcUSB/arm/usb_mouse.c.o
                0x0000000000005b5c                usb_mouse_send
 .text.usb_serial_getchar
                0x0000000000005c04       0x4c CMakeFiles/kiibohd.elf.dir/Output/pjrcUSB/arm/usb_serial.c.o
                0x0000000000005c04                usb_serial_getchar
 .text.usb_serial_available
                0x0000000000005c50       0x1c CMakeFiles/kiibohd.elf.dir/Output/pjrcUSB/arm/usb_serial.c.o
                0x0000000000005c50                usb_serial_available
 .text.usb_serial_write
                0x0000000000005c6c       0xd0 CMakeFiles/kiibohd.elf.dir/Output/pjrcUSB/arm/usb_serial.c.o
                0x0000000000005c6c                usb_serial_write
 .text.usb_serial_flush_callback
                0x0000000000005d3c       0x48 CMakeFiles/kiibohd.elf.dir/Output/pjrcUSB/arm/usb_serial.c.o
                0x0000000000005d3c                usb_serial_flush_callback
 .text.cliFunc_clear
                0x0000000000005d84        0xc CMakeFiles/kiibohd.elf.dir/Debug/cli/cli.c.o
                0x0000000000005d84                cliFunc_clear
 .text.cliFunc_reload
                0x0000000000005d90       0x24 CMakeFiles/kiibohd.elf.dir/Debug/cli/cli.c.o
                0x0000000000005d90                cliFunc_reload
 .text.cliFunc_reset
                0x0000000000005db4        0xc CMakeFiles/kiibohd.elf.dir/Debug/cli/cli.c.o
                0x0000000000005db4                cliFunc_reset
 .text.cliFunc_help
                0x0000000000005dc0       0xb0 CMakeFiles/kiibohd.elf.dir/Debug/cli/cli.c.o
                0x0000000000005dc0                cliFunc_help
 .text.cliFunc_led
                0x0000000000005e70       0x14 CMakeFiles/kiibohd.elf.dir/Debug/cli/cli.c.o
                0x0000000000005e70                cliFunc_led
 .text.cliFunc_restart
                0x0000000000005e84        0x4 CMakeFiles/kiibohd.elf.dir/Debug/cli/cli.c.o
                0x0000000000005e84                cliFunc_restart
 .text.cliFunc_version
                0x0000000000005e88       0xd4 CMakeFiles/kiibohd.elf.dir/Debug/cli/cli.c.o
                0x0000000000005e88                cliFunc_version
 .text.cliFunc_cliDebug
                0x0000000000005f5c       0x38 CMakeFiles/kiibohd.elf.dir/Debug/cli/cli.c.o
                0x0000000000005f5c                cliFunc_cliDebug
 .text.CLI_argumentIsolation
                0x0000000000005f94       0x24 CMakeFiles/kiibohd.elf.dir/Debug/cli/cli.c.o
                0x0000000000005f94                CLI_argumentIsolation
 .text.CLI_commandLookup
                0x0000000000005fb8       0xc4 CMakeFiles/kiibohd.elf.dir/Debug/cli/cli.c.o
                0x0000000000005fb8                CLI_commandLookup
 .text.CLI_registerDictionary
                0x000000000000607c       0x38 CMakeFiles/kiibohd.elf.dir/Debug/cli/cli.c.o
                0x000000000000607c                CLI_registerDictionary
 .text.CLI_init
                0x00000000000060b4       0x68 CMakeFiles/kiibohd.elf.dir/Debug/cli/cli.c.o
                0x00000000000060b4                CLI_init
 .text.CLI_tabCompletion
                0x000000000000611c       0xc0 CMakeFiles/kiibohd.elf.dir/Debug/cli/cli.c.o
                0x000000000000611c                CLI_tabCompletion
 .text.CLI_wrap
                0x00000000000061dc       0x28 CMakeFiles/kiibohd.elf.dir/Debug/cli/cli.c.o
                0x00000000000061dc                CLI_wrap
 .text.CLI_saveHistory
                0x0000000000006204       0x50 CMakeFiles/kiibohd.elf.dir/Debug/cli/cli.c.o
                0x0000000000006204                CLI_saveHistory
 .text.CLI_retreiveHistory
                0x0000000000006254       0x50 CMakeFiles/kiibohd.elf.dir/Debug/cli/cli.c.o
                0x0000000000006254                CLI_retreiveHistory
 .text.CLI_process
                0x00000000000062a4      0x214 CMakeFiles/kiibohd.elf.dir/Debug/cli/cli.c.o
                0x00000000000062a4                CLI_process
 .text.init_errorLED
                0x00000000000064b8       0x1c CMakeFiles/kiibohd.elf.dir/Debug/led/led.c.o
                0x00000000000064b8                init_errorLED
 .text.errorLED
                0x00000000000064d4       0x1c CMakeFiles/kiibohd.elf.dir/Debug/led/led.c.o
                0x00000000000064d4                errorLED
 .text.printstrs
                0x00000000000064f0       0x34 CMakeFiles/kiibohd.elf.dir/Debug/print/print.c.o
                0x00000000000064f0                printstrs
 .text._print   0x0000000000006524        0x4 CMakeFiles/kiibohd.elf.dir/Debug/print/print.c.o
                0x0000000000006524                _print
 .text.lenStr   0x0000000000006528       0x12 CMakeFiles/kiibohd.elf.dir/Debug/print/print.c.o
                0x0000000000006528                lenStr
 .text.revsStr  0x000000000000653a       0x20 CMakeFiles/kiibohd.elf.dir/Debug/print/print.c.o
                0x000000000000653a                revsStr
 .text.int8ToStr
                0x000000000000655a       0x28 CMakeFiles/kiibohd.elf.dir/Debug/print/print.c.o
                0x000000000000655a                int8ToStr
 .text.printInt8
                0x0000000000006582       0x14 CMakeFiles/kiibohd.elf.dir/Debug/print/print.c.o
                0x0000000000006582                printInt8
 .text.int16ToStr
                0x0000000000006596       0x28 CMakeFiles/kiibohd.elf.dir/Debug/print/print.c.o
                0x0000000000006596                int16ToStr
 .text.printInt16
                0x00000000000065be       0x14 CMakeFiles/kiibohd.elf.dir/Debug/print/print.c.o
                0x00000000000065be                printInt16
 .text.int32ToStr
                0x00000000000065d2       0x2a CMakeFiles/kiibohd.elf.dir/Debug/print/print.c.o
                0x00000000000065d2                int32ToStr
 .text.printInt32
                0x00000000000065fc       0x14 CMakeFiles/kiibohd.elf.dir/Debug/print/print.c.o
                0x00000000000065fc                printInt32
 .text.hexToStr_op
                0x0000000000006610       0x58 CMakeFiles/kiibohd.elf.dir/Debug/print/print.c.o
                0x0000000000006610                hexToStr_op
 .text.printHex_op
                0x0000000000006668       0x16 CMakeFiles/kiibohd.elf.dir/Debug/print/print.c.o
                0x0000000000006668                printHex_op
 .text.hex32ToStr_op
                0x000000000000667e       0x62 CMakeFiles/kiibohd.elf.dir/Debug/print/print.c.o
                0x000000000000667e                hex32ToStr_op
 .text.printHex32_op
                0x00000000000066e0       0x16 CMakeFiles/kiibohd.elf.dir/Debug/print/print.c.o
                0x00000000000066e0                printHex32_op
 .text.hex32ToStr16
                0x00000000000066f6       0x28 CMakeFiles/kiibohd.elf.dir/Debug/print/print.c.o
                0x00000000000066f6                hex32ToStr16
 .text.eqStr    0x000000000000671e       0x2a CMakeFiles/kiibohd.elf.dir/Debug/print/print.c.o
                0x000000000000671e                eqStr
 .text.numToInt
                0x0000000000006748       0x84 CMakeFiles/kiibohd.elf.dir/Debug/print/print.c.o
                0x0000000000006748                numToInt
 *(.rodata*)
 .rodata.str1.1
                0x00000000000067cc       0x8e CMakeFiles/kiibohd.elf.dir/Lib/mk20dx.c.o
                                         0x91 (size before relaxing)
 .rodata.sys_reset_to_loader_magic
                0x000000000000685a       0x16 CMakeFiles/kiibohd.elf.dir/Lib/mk20dx.c.o
                0x000000000000685a                sys_reset_to_loader_magic
 .rodata        0x0000000000006870        0x3 CMakeFiles/kiibohd.elf.dir/Scan/ISSILed/led_scan.c.o
 .rodata.ledWPageCLIDict_DescEntry
                0x0000000000006873       0x4a CMakeFiles/kiibohd.elf.dir/Scan/ISSILed/led_scan.c.o
                0x0000000000006873                ledWPageCLIDict_DescEntry
 .rodata.ledTestCLIDict_DescEntry
                0x00000000000068bd       0x18 CMakeFiles/kiibohd.elf.dir/Scan/ISSILed/led_scan.c.o
                0x00000000000068bd                ledTestCLIDict_DescEntry
 *fill*         0x00000000000068d5        0x3 
 .rodata.ledCLIDict
                0x00000000000068d8       0x6c CMakeFiles/kiibohd.elf.dir/Scan/ISSILed/led_scan.c.o
                0x00000000000068d8                ledCLIDict
 .rodata.ledRPageCLIDict_DescEntry
                0x0000000000006944       0x1e CMakeFiles/kiibohd.elf.dir/Scan/ISSILed/led_scan.c.o
                0x0000000000006944                ledRPageCLIDict_DescEntry
 .rodata.ledStartCLIDict_DescEntry
                0x0000000000006962       0x1b CMakeFiles/kiibohd.elf.dir/Scan/ISSILed/led_scan.c.o
                0x0000000000006962                ledStartCLIDict_DescEntry
 .rodata.str1.1
                0x000000000000697d      0x1ef CMakeFiles/kiibohd.elf.dir/Scan/ISSILed/led_scan.c.o
                                        0x1f4 (size before relaxing)
 .rodata.ledCtrlCLIDict_DescEntry
                0x0000000000006b6c       0x33 CMakeFiles/kiibohd.elf.dir/Scan/ISSILed/led_scan.c.o
                0x0000000000006b6c                ledCtrlCLIDict_DescEntry
 .rodata.LED_defaultBrightness1
                0x0000000000006b9f       0x92 CMakeFiles/kiibohd.elf.dir/Scan/ISSILed/led_scan.c.o
                0x0000000000006b9f                LED_defaultBrightness1
 .rodata.ledZeroCLIDict_DescEntry
                0x0000000000006c31       0x31 CMakeFiles/kiibohd.elf.dir/Scan/ISSILed/led_scan.c.o
                0x0000000000006c31                ledZeroCLIDict_DescEntry
 .rodata.i2cRecvCLIDict_DescEntry
                0x0000000000006c62       0x79 CMakeFiles/kiibohd.elf.dir/Scan/ISSILed/led_scan.c.o
                0x0000000000006c62                i2cRecvCLIDict_DescEntry
 .rodata.i2cSendCLIDict_DescEntry
                0x0000000000006cdb       0x44 CMakeFiles/kiibohd.elf.dir/Scan/ISSILed/led_scan.c.o
                0x0000000000006cdb                i2cSendCLIDict_DescEntry
 .rodata.LED_ledEnableMask1
                0x0000000000006d1f       0x14 CMakeFiles/kiibohd.elf.dir/Scan/ISSILed/led_scan.c.o
                0x0000000000006d1f                LED_ledEnableMask1
 .rodata.ledCLIDictName
                0x0000000000006d33       0x19 CMakeFiles/kiibohd.elf.dir/Scan/ISSILed/led_scan.c.o
                0x0000000000006d33                ledCLIDictName
 .rodata.matrixDebugCLIDict_DescEntry
                0x0000000000006d4c       0x86 CMakeFiles/kiibohd.elf.dir/Scan/MatrixARM/matrix_scan.c.o
                0x0000000000006d4c                matrixDebugCLIDict_DescEntry
 .rodata.str1.1
                0x0000000000006dd2      0x1ce CMakeFiles/kiibohd.elf.dir/Scan/MatrixARM/matrix_scan.c.o
                                        0x1d8 (size before relaxing)
 .rodata.matrixStateCLIDict_DescEntry
                0x0000000000006fa0       0x9a CMakeFiles/kiibohd.elf.dir/Scan/MatrixARM/matrix_scan.c.o
                0x0000000000006fa0                matrixStateCLIDict_DescEntry
 .rodata.matrixInfoCLIDict_DescEntry
                0x000000000000703a       0x28 CMakeFiles/kiibohd.elf.dir/Scan/MatrixARM/matrix_scan.c.o
                0x000000000000703a                matrixInfoCLIDict_DescEntry
 .rodata.matrixCLIDictName
                0x0000000000007062       0x17 CMakeFiles/kiibohd.elf.dir/Scan/MatrixARM/matrix_scan.c.o
                0x0000000000007062                matrixCLIDictName
 *fill*         0x0000000000007079        0x3 
 .rodata.matrixCLIDict
                0x000000000000707c       0x30 CMakeFiles/kiibohd.elf.dir/Scan/MatrixARM/matrix_scan.c.o
                0x000000000000707c                matrixCLIDict
 .rodata.rm20_guide
                0x00000000000070ac        0x4 CMakeFiles/kiibohd.elf.dir/Macro/PartialMap/macro.c.o
                0x00000000000070ac                rm20_guide
 .rodata.layer1_tl_0x0C
                0x00000000000070b0        0x8 CMakeFiles/kiibohd.elf.dir/Macro/PartialMap/macro.c.o
                0x00000000000070b0                layer1_tl_0x0C
 .rodata.layer1_tl_0x34
                0x00000000000070b8        0x4 CMakeFiles/kiibohd.elf.dir/Macro/PartialMap/macro.c.o
                0x00000000000070b8                layer1_tl_0x34
 .rodata.rm19_guide
                0x00000000000070bc        0x4 CMakeFiles/kiibohd.elf.dir/Macro/PartialMap/macro.c.o
                0x00000000000070bc                rm19_guide
 .rodata.layer1_tl_0x36
                0x00000000000070c0        0x4 CMakeFiles/kiibohd.elf.dir/Macro/PartialMap/macro.c.o
                0x00000000000070c0                layer1_tl_0x36
 .rodata.rm34_guide
                0x00000000000070c4        0x4 CMakeFiles/kiibohd.elf.dir/Macro/PartialMap/macro.c.o
                0x00000000000070c4                rm34_guide
 .rodata.rm95_guide
                0x00000000000070c8        0x4 CMakeFiles/kiibohd.elf.dir/Macro/PartialMap/macro.c.o
                0x00000000000070c8                rm95_guide
 .rodata.rm3_guide
                0x00000000000070cc        0x4 CMakeFiles/kiibohd.elf.dir/Macro/PartialMap/macro.c.o
                0x00000000000070cc                rm3_guide
 .rodata.tm34_guide
                0x00000000000070d0        0x5 CMakeFiles/kiibohd.elf.dir/Macro/PartialMap/macro.c.o
                0x00000000000070d0                tm34_guide
 *fill*         0x00000000000070d5        0x3 
 .rodata.CapabilitiesList
                0x00000000000070d8       0x78 CMakeFiles/kiibohd.elf.dir/Macro/PartialMap/macro.c.o
                0x00000000000070d8                CapabilitiesList
 .rodata.rm38_guide
                0x0000000000007150        0x4 CMakeFiles/kiibohd.elf.dir/Macro/PartialMap/macro.c.o
                0x0000000000007150                rm38_guide
 .rodata.rm54_guide
                0x0000000000007154        0x4 CMakeFiles/kiibohd.elf.dir/Macro/PartialMap/macro.c.o
                0x0000000000007154                rm54_guide
 .rodata.rm8_guide
                0x0000000000007158        0x4 CMakeFiles/kiibohd.elf.dir/Macro/PartialMap/macro.c.o
                0x0000000000007158                rm8_guide
 .rodata.tm96_guide
                0x000000000000715c        0x5 CMakeFiles/kiibohd.elf.dir/Macro/PartialMap/macro.c.o
                0x000000000000715c                tm96_guide
 .rodata.rm36_guide
                0x0000000000007161        0x4 CMakeFiles/kiibohd.elf.dir/Macro/PartialMap/macro.c.o
                0x0000000000007161                rm36_guide
 .rodata.rm97_guide
                0x0000000000007165        0x4 CMakeFiles/kiibohd.elf.dir/Macro/PartialMap/macro.c.o
                0x0000000000007165                rm97_guide
 .rodata.tm35_guide
                0x0000000000007169        0x5 CMakeFiles/kiibohd.elf.dir/Macro/PartialMap/macro.c.o
                0x0000000000007169                tm35_guide
 .rodata.tm36_guide
                0x000000000000716e        0x5 CMakeFiles/kiibohd.elf.dir/Macro/PartialMap/macro.c.o
                0x000000000000716e                tm36_guide
 .rodata.tm97_guide
                0x0000000000007173        0x5 CMakeFiles/kiibohd.elf.dir/Macro/PartialMap/macro.c.o
                0x0000000000007173                tm97_guide
 .rodata.layer1_tl_0x3A
                0x0000000000007178        0x4 CMakeFiles/kiibohd.elf.dir/Macro/PartialMap/macro.c.o
                0x0000000000007178                layer1_tl_0x3A
 .rodata.layer1_tl_0x09
                0x000000000000717c        0x8 CMakeFiles/kiibohd.elf.dir/Macro/PartialMap/macro.c.o
                0x000000000000717c                layer1_tl_0x09
 .rodata.layer1_tl_0x3B
                0x0000000000007184        0x8 CMakeFiles/kiibohd.elf.dir/Macro/PartialMap/macro.c.o
                0x0000000000007184                layer1_tl_0x3B
 .rodata.rm89_guide
                0x000000000000718c        0x4 CMakeFiles/kiibohd.elf.dir/Macro/PartialMap/macro.c.o
                0x000000000000718c                rm89_guide
 .rodata.default_tl_0x13
                0x0000000000007190        0x8 CMakeFiles/kiibohd.elf.dir/Macro/PartialMap/macro.c.o
                0x0000000000007190                default_tl_0x13
 .rodata.rm5_guide
                0x0000000000007198        0x4 CMakeFiles/kiibohd.elf.dir/Macro/PartialMap/macro.c.o
                0x0000000000007198                rm5_guide
 .rodata.rm72_guide
                0x000000000000719c        0x4 CMakeFiles/kiibohd.elf.dir/Macro/PartialMap/macro.c.o
                0x000000000000719c                rm72_guide
 .rodata.rm62_guide
                0x00000000000071a0        0x4 CMakeFiles/kiibohd.elf.dir/Macro/PartialMap/macro.c.o
                0x00000000000071a0                rm62_guide
 .rodata.tm38_guide
                0x00000000000071a4        0x5 CMakeFiles/kiibohd.elf.dir/Macro/PartialMap/macro.c.o
                0x00000000000071a4                tm38_guide
 .rodata.tm99_guide
                0x00000000000071a9        0x5 CMakeFiles/kiibohd.elf.dir/Macro/PartialMap/macro.c.o
                0x00000000000071a9                tm99_guide
 .rodata.tm62_guide
                0x00000000000071ae        0x5 CMakeFiles/kiibohd.elf.dir/Macro/PartialMap/macro.c.o
                0x00000000000071ae                tm62_guide
 .rodata.tm57_guide
                0x00000000000071b3        0x5 CMakeFiles/kiibohd.elf.dir/Macro/PartialMap/macro.c.o
                0x00000000000071b3                tm57_guide
 .rodata.rm25_guide
                0x00000000000071b8        0x4 CMakeFiles/kiibohd.elf.dir/Macro/PartialMap/macro.c.o
                0x00000000000071b8                rm25_guide
 .rodata.tm56_guide
                0x00000000000071bc        0x5 CMakeFiles/kiibohd.elf.dir/Macro/PartialMap/macro.c.o
                0x00000000000071bc                tm56_guide
 .rodata.tm68_guide
                0x00000000000071c1        0x5 CMakeFiles/kiibohd.elf.dir/Macro/PartialMap/macro.c.o
                0x00000000000071c1                tm68_guide
 .rodata.rm64_guide
                0x00000000000071c6        0x4 CMakeFiles/kiibohd.elf.dir/Macro/PartialMap/macro.c.o
                0x00000000000071c6                rm64_guide
 *fill*         0x00000000000071ca        0x2 
 .rodata.layer1_tl_0x03
                0x00000000000071cc        0x8 CMakeFiles/kiibohd.elf.dir/Macro/PartialMap/macro.c.o
                0x00000000000071cc                layer1_tl_0x03
 .rodata.tm64_guide
                0x00000000000071d4        0x5 CMakeFiles/kiibohd.elf.dir/Macro/PartialMap/macro.c.o
                0x00000000000071d4                tm64_guide
 .rodata.tm31_guide
                0x00000000000071d9        0x5 CMakeFiles/kiibohd.elf.dir/Macro/PartialMap/macro.c.o
                0x00000000000071d9                tm31_guide
 .rodata.rm35_guide
                0x00000000000071de        0x4 CMakeFiles/kiibohd.elf.dir/Macro/PartialMap/macro.c.o
                0x00000000000071de                rm35_guide
 .rodata.rm51_guide
                0x00000000000071e2        0x4 CMakeFiles/kiibohd.elf.dir/Macro/PartialMap/macro.c.o
                0x00000000000071e2                rm51_guide
 *fill*         0x00000000000071e6        0x2 
 .rodata.default_tl_0x1A
                0x00000000000071e8        0x8 CMakeFiles/kiibohd.elf.dir/Macro/PartialMap/macro.c.o
                0x00000000000071e8                default_tl_0x1A
 .rodata.tm32_guide
                0x00000000000071f0        0x5 CMakeFiles/kiibohd.elf.dir/Macro/PartialMap/macro.c.o
                0x00000000000071f0                tm32_guide
 *fill*         0x00000000000071f5        0x3 
 .rodata.default_tl_0x1B
                0x00000000000071f8        0x8 CMakeFiles/kiibohd.elf.dir/Macro/PartialMap/macro.c.o
                0x00000000000071f8                default_tl_0x1B
 .rodata.tm86_guide
                0x0000000000007200        0x5 CMakeFiles/kiibohd.elf.dir/Macro/PartialMap/macro.c.o
                0x0000000000007200                tm86_guide
 .rodata.tm101_guide
                0x0000000000007205        0x5 CMakeFiles/kiibohd.elf.dir/Macro/PartialMap/macro.c.o
                0x0000000000007205                tm101_guide
 .rodata.rm15_guide
                0x000000000000720a        0x4 CMakeFiles/kiibohd.elf.dir/Macro/PartialMap/macro.c.o
                0x000000000000720a                rm15_guide
 *fill*         0x000000000000720e        0x2 
 .rodata.default_tl_0x1D
                0x0000000000007210        0x8 CMakeFiles/kiibohd.elf.dir/Macro/PartialMap/macro.c.o
                0x0000000000007210                default_tl_0x1D
 .rodata.rm46_guide
                0x0000000000007218        0x4 CMakeFiles/kiibohd.elf.dir/Macro/PartialMap/macro.c.o
                0x0000000000007218                rm46_guide
 .rodata.default_tl_0x1E
                0x000000000000721c        0x8 CMakeFiles/kiibohd.elf.dir/Macro/PartialMap/macro.c.o
                0x000000000000721c                default_tl_0x1E
 .rodata.default_tl_0x1F
                0x0000000000007224        0x8 CMakeFiles/kiibohd.elf.dir/Macro/PartialMap/macro.c.o
                0x0000000000007224                default_tl_0x1F
 .rodata.tm90_guide
                0x000000000000722c        0x5 CMakeFiles/kiibohd.elf.dir/Macro/PartialMap/macro.c.o
                0x000000000000722c                tm90_guide
 .rodata.rm60_guide
                0x0000000000007231        0x4 CMakeFiles/kiibohd.elf.dir/Macro/PartialMap/macro.c.o
                0x0000000000007231                rm60_guide
 .rodata.str1.1
                0x0000000000007235      0x5ae CMakeFiles/kiibohd.elf.dir/Macro/PartialMap/macro.c.o
                                        0x5d1 (size before relaxing)
 .rodata.tm91_guide
                0x00000000000077e3        0x5 CMakeFiles/kiibohd.elf.dir/Macro/PartialMap/macro.c.o
                0x00000000000077e3                tm91_guide
 .rodata.tm103_guide
                0x00000000000077e8        0x5 CMakeFiles/kiibohd.elf.dir/Macro/PartialMap/macro.c.o
                0x00000000000077e8                tm103_guide
 .rodata.tm15_guide
                0x00000000000077ed        0x5 CMakeFiles/kiibohd.elf.dir/Macro/PartialMap/macro.c.o
                0x00000000000077ed                tm15_guide
 .rodata.rm78_guide
                0x00000000000077f2        0x4 CMakeFiles/kiibohd.elf.dir/Macro/PartialMap/macro.c.o
                0x00000000000077f2                rm78_guide
 .rodata.rm41_guide
                0x00000000000077f6        0x4 CMakeFiles/kiibohd.elf.dir/Macro/PartialMap/macro.c.o
                0x00000000000077f6                rm41_guide
 .rodata.rm92_guide
                0x00000000000077fa        0x4 CMakeFiles/kiibohd.elf.dir/Macro/PartialMap/macro.c.o
                0x00000000000077fa                rm92_guide
 .rodata.tm17_guide
                0x00000000000077fe        0x5 CMakeFiles/kiibohd.elf.dir/Macro/PartialMap/macro.c.o
                0x00000000000077fe                tm17_guide
 .rodata.tm69_guide
                0x0000000000007803        0x5 CMakeFiles/kiibohd.elf.dir/Macro/PartialMap/macro.c.o
                0x0000000000007803                tm69_guide
 .rodata.tm41_guide
                0x0000000000007808        0x5 CMakeFiles/kiibohd.elf.dir/Macro/PartialMap/macro.c.o
                0x0000000000007808                tm41_guide
 .rodata.tm92_guide
                0x000000000000780d        0x5 CMakeFiles/kiibohd.elf.dir/Macro/PartialMap/macro.c.o
                0x000000000000780d                tm92_guide
 .rodata.keyPressCLIDict_DescEntry
                0x0000000000007812       0x6e CMakeFiles/kiibohd.elf.dir/Macro/PartialMap/macro.c.o
                0x0000000000007812                keyPressCLIDict_DescEntry
 .rodata.rm49_guide
                0x0000000000007880        0x4 CMakeFiles/kiibohd.elf.dir/Macro/PartialMap/macro.c.o
                0x0000000000007880                rm49_guide
 .rodata.rm18_guide
                0x0000000000007884        0x4 CMakeFiles/kiibohd.elf.dir/Macro/PartialMap/macro.c.o
                0x0000000000007884                rm18_guide
 .rodata.rm0_guide
                0x0000000000007888        0x4 CMakeFiles/kiibohd.elf.dir/Macro/PartialMap/macro.c.o
                0x0000000000007888                rm0_guide
 .rodata.tm105_guide
                0x000000000000788c        0x5 CMakeFiles/kiibohd.elf.dir/Macro/PartialMap/macro.c.o
                0x000000000000788c                tm105_guide
 .rodata.macroCLIDictName
                0x0000000000007891       0x16 CMakeFiles/kiibohd.elf.dir/Macro/PartialMap/macro.c.o
                0x0000000000007891                macroCLIDictName
 *fill*         0x00000000000078a7        0x1 
 .rodata.layer1_tl_0x00
                0x00000000000078a8        0x8 CMakeFiles/kiibohd.elf.dir/Macro/PartialMap/macro.c.o
                0x00000000000078a8                layer1_tl_0x00
 .rodata.tm52_guide
                0x00000000000078b0        0x5 CMakeFiles/kiibohd.elf.dir/Macro/PartialMap/macro.c.o
                0x00000000000078b0                tm52_guide
 .rodata.tm37_guide
                0x00000000000078b5        0x5 CMakeFiles/kiibohd.elf.dir/Macro/PartialMap/macro.c.o
                0x00000000000078b5                tm37_guide
 .rodata.tm19_guide
                0x00000000000078ba        0x5 CMakeFiles/kiibohd.elf.dir/Macro/PartialMap/macro.c.o
                0x00000000000078ba                tm19_guide
 *fill*         0x00000000000078bf        0x1 
 .rodata.layer1_tl_0x02
                0x00000000000078c0        0x8 CMakeFiles/kiibohd.elf.dir/Macro/PartialMap/macro.c.o
                0x00000000000078c0                layer1_tl_0x02
 .rodata.tm43_guide
                0x00000000000078c8        0x5 CMakeFiles/kiibohd.elf.dir/Macro/PartialMap/macro.c.o
                0x00000000000078c8                tm43_guide
 .rodata.tm94_guide
                0x00000000000078cd        0x5 CMakeFiles/kiibohd.elf.dir/Macro/PartialMap/macro.c.o
                0x00000000000078cd                tm94_guide
 *fill*         0x00000000000078d2        0x2 
 .rodata.layer1_tl_0x04
                0x00000000000078d4        0x8 CMakeFiles/kiibohd.elf.dir/Macro/PartialMap/macro.c.o
                0x00000000000078d4                layer1_tl_0x04
 .rodata.layer1_tl_0x05
                0x00000000000078dc        0x8 CMakeFiles/kiibohd.elf.dir/Macro/PartialMap/macro.c.o
                0x00000000000078dc                layer1_tl_0x05
 .rodata.layerDebugCLIDict_DescEntry
                0x00000000000078e4       0x35 CMakeFiles/kiibohd.elf.dir/Macro/PartialMap/macro.c.o
                0x00000000000078e4                layerDebugCLIDict_DescEntry
 .rodata.rm91_guide
                0x0000000000007919        0x4 CMakeFiles/kiibohd.elf.dir/Macro/PartialMap/macro.c.o
                0x0000000000007919                rm91_guide
 .rodata.tm107_guide
                0x000000000000791d        0x5 CMakeFiles/kiibohd.elf.dir/Macro/PartialMap/macro.c.o
                0x000000000000791d                tm107_guide
 .rodata.rm7_guide
                0x0000000000007922        0x4 CMakeFiles/kiibohd.elf.dir/Macro/PartialMap/macro.c.o
                0x0000000000007922                rm7_guide
 *fill*         0x0000000000007926        0x2 
 .rodata.layer1_tl_0x08
                0x0000000000007928        0x8 CMakeFiles/kiibohd.elf.dir/Macro/PartialMap/macro.c.o
                0x0000000000007928                layer1_tl_0x08
 .rodata.tm85_guide
                0x0000000000007930        0x5 CMakeFiles/kiibohd.elf.dir/Macro/PartialMap/macro.c.o
                0x0000000000007930                tm85_guide
 *fill*         0x0000000000007935        0x3 
 .rodata.default_tl_0x2D
                0x0000000000007938        0x8 CMakeFiles/kiibohd.elf.dir/Macro/PartialMap/macro.c.o
                0x0000000000007938                default_tl_0x2D
 .rodata.tm45_guide
                0x0000000000007940        0x5 CMakeFiles/kiibohd.elf.dir/Macro/PartialMap/macro.c.o
                0x0000000000007940                tm45_guide
 *fill*         0x0000000000007945        0x3 
 .rodata.default_tl_0x2E
                0x0000000000007948        0x8 CMakeFiles/kiibohd.elf.dir/Macro/PartialMap/macro.c.o
                0x0000000000007948                default_tl_0x2E
 .rodata.rm33_guide
                0x0000000000007950        0x4 CMakeFiles/kiibohd.elf.dir/Macro/PartialMap/macro.c.o
                0x0000000000007950                rm33_guide
 .rodata.default_tl_0x2F
                0x0000000000007954        0x8 CMakeFiles/kiibohd.elf.dir/Macro/PartialMap/macro.c.o
                0x0000000000007954                default_tl_0x2F
 .rodata.rm74_guide
                0x000000000000795c        0x5 CMakeFiles/kiibohd.elf.dir/Macro/PartialMap/macro.c.o
                0x000000000000795c                rm74_guide
 .rodata.tm23_guide
                0x0000000000007961        0x5 CMakeFiles/kiibohd.elf.dir/Macro/PartialMap/macro.c.o
                0x0000000000007961                tm23_guide
 *fill*         0x0000000000007966        0x2 
 .rodata.layer1_tl_0x41
                0x0000000000007968        0x4 CMakeFiles/kiibohd.elf.dir/Macro/PartialMap/macro.c.o
                0x0000000000007968                layer1_tl_0x41
 .rodata.rm10_guide
                0x000000000000796c        0x4 CMakeFiles/kiibohd.elf.dir/Macro/PartialMap/macro.c.o
                0x000000000000796c                rm10_guide
 .rodata.layer1_tl_0x42
                0x0000000000007970        0x4 CMakeFiles/kiibohd.elf.dir/Macro/PartialMap/macro.c.o
                0x0000000000007970                layer1_tl_0x42
 .rodata.rm44_guide
                0x0000000000007974        0x4 CMakeFiles/kiibohd.elf.dir/Macro/PartialMap/macro.c.o
                0x0000000000007974                rm44_guide
 .rodata.tm47_guide
                0x0000000000007978        0x5 CMakeFiles/kiibohd.elf.dir/Macro/PartialMap/macro.c.o
                0x0000000000007978                tm47_guide
 *fill*         0x000000000000797d        0x3 
 .rodata.default_tl_0x00
                0x0000000000007980        0x8 CMakeFiles/kiibohd.elf.dir/Macro/PartialMap/macro.c.o
                0x0000000000007980                default_tl_0x00
 .rodata.default_tl_0x01
                0x0000000000007988        0x8 CMakeFiles/kiibohd.elf.dir/Macro/PartialMap/macro.c.o
                0x0000000000007988                default_tl_0x01
 .rodata.default_tl_0x02
                0x0000000000007990        0x8 CMakeFiles/kiibohd.elf.dir/Macro/PartialMap/macro.c.o
                0x0000000000007990                default_tl_0x02
 .rodata.default_tl_0x03
                0x0000000000007998        0x8 CMakeFiles/kiibohd.elf.dir/Macro/PartialMap/macro.c.o
                0x0000000000007998                default_tl_0x03
 .rodata.default_tl_0x04
                0x00000000000079a0        0x8 CMakeFiles/kiibohd.elf.dir/Macro/PartialMap/macro.c.o
                0x00000000000079a0                default_tl_0x04
 .rodata.default_tl_0x05
                0x00000000000079a8        0x8 CMakeFiles/kiibohd.elf.dir/Macro/PartialMap/macro.c.o
                0x00000000000079a8                default_tl_0x05
 .rodata.default_tl_0x06
                0x00000000000079b0        0x8 CMakeFiles/kiibohd.elf.dir/Macro/PartialMap/macro.c.o
                0x00000000000079b0                default_tl_0x06
 .rodata.default_tl_0x07
                0x00000000000079b8        0x8 CMakeFiles/kiibohd.elf.dir/Macro/PartialMap/macro.c.o
                0x00000000000079b8                default_tl_0x07
 .rodata.default_tl_0x08
                0x00000000000079c0        0x8 CMakeFiles/kiibohd.elf.dir/Macro/PartialMap/macro.c.o
                0x00000000000079c0                default_tl_0x08
 .rodata.default_tl_0x09
                0x00000000000079c8        0x8 CMakeFiles/kiibohd.elf.dir/Macro/PartialMap/macro.c.o
                0x00000000000079c8                default_tl_0x09
 .rodata.tm10_guide
                0x00000000000079d0        0x5 CMakeFiles/kiibohd.elf.dir/Macro/PartialMap/macro.c.o
                0x00000000000079d0                tm10_guide
 .rodata.tm1_guide
                0x00000000000079d5        0x5 CMakeFiles/kiibohd.elf.dir/Macro/PartialMap/macro.c.o
                0x00000000000079d5                tm1_guide
 .rodata.rm73_guide
                0x00000000000079da        0x5 CMakeFiles/kiibohd.elf.dir/Macro/PartialMap/macro.c.o
                0x00000000000079da                rm73_guide
 .rodata.tm79_guide
                0x00000000000079df        0x5 CMakeFiles/kiibohd.elf.dir/Macro/PartialMap/macro.c.o
                0x00000000000079df                tm79_guide
 .rodata.tm12_guide
                0x00000000000079e4        0x5 CMakeFiles/kiibohd.elf.dir/Macro/PartialMap/macro.c.o
                0x00000000000079e4                tm12_guide
 .rodata.tm73_guide
                0x00000000000079e9        0x5 CMakeFiles/kiibohd.elf.dir/Macro/PartialMap/macro.c.o
                0x00000000000079e9                tm73_guide
 *fill*         0x00000000000079ee        0x2 
 .rodata.default_tl_0x0A
                0x00000000000079f0        0x8 CMakeFiles/kiibohd.elf.dir/Macro/PartialMap/macro.c.o
                0x00000000000079f0                default_tl_0x0A
 .rodata.layer1_tl_0x01
                0x00000000000079f8        0x8 CMakeFiles/kiibohd.elf.dir/Macro/PartialMap/macro.c.o
                0x00000000000079f8                layer1_tl_0x01
 .rodata.default_tl_0x0C
                0x0000000000007a00        0x8 CMakeFiles/kiibohd.elf.dir/Macro/PartialMap/macro.c.o
                0x0000000000007a00                default_tl_0x0C
 .rodata.default_tl_0x0D
                0x0000000000007a08        0x8 CMakeFiles/kiibohd.elf.dir/Macro/PartialMap/macro.c.o
                0x0000000000007a08                default_tl_0x0D
 .rodata.default_tl_0x0E
                0x0000000000007a10        0x8 CMakeFiles/kiibohd.elf.dir/Macro/PartialMap/macro.c.o
                0x0000000000007a10                default_tl_0x0E
 .rodata.default_tl_0x0F
                0x0000000000007a18        0x8 CMakeFiles/kiibohd.elf.dir/Macro/PartialMap/macro.c.o
                0x0000000000007a18                default_tl_0x0F
 .rodata.layer1_tl_0x06
                0x0000000000007a20        0x8 CMakeFiles/kiibohd.elf.dir/Macro/PartialMap/macro.c.o
                0x0000000000007a20                layer1_tl_0x06
 .rodata.layer1_tl_0x07
                0x0000000000007a28        0x8 CMakeFiles/kiibohd.elf.dir/Macro/PartialMap/macro.c.o
                0x0000000000007a28                layer1_tl_0x07
 .rodata.tm100_guide
                0x0000000000007a30        0x5 CMakeFiles/kiibohd.elf.dir/Macro/PartialMap/macro.c.o
                0x0000000000007a30                tm100_guide
 .rodata.tm2_guide
                0x0000000000007a35        0x5 CMakeFiles/kiibohd.elf.dir/Macro/PartialMap/macro.c.o
                0x0000000000007a35                tm2_guide
 .rodata.tm14_guide
                0x0000000000007a3a        0x5 CMakeFiles/kiibohd.elf.dir/Macro/PartialMap/macro.c.o
                0x0000000000007a3a                tm14_guide
 .rodata.tm75_guide
                0x0000000000007a3f        0x5 CMakeFiles/kiibohd.elf.dir/Macro/PartialMap/macro.c.o
                0x0000000000007a3f                tm75_guide
 .rodata.tm61_guide
                0x0000000000007a44        0x5 CMakeFiles/kiibohd.elf.dir/Macro/PartialMap/macro.c.o
                0x0000000000007a44                tm61_guide
 *fill*         0x0000000000007a49        0x3 
 .rodata.layer1_tl_0x0A
                0x0000000000007a4c        0x8 CMakeFiles/kiibohd.elf.dir/Macro/PartialMap/macro.c.o
                0x0000000000007a4c                layer1_tl_0x0A
 .rodata.layer1_tl_0x0B
                0x0000000000007a54        0x8 CMakeFiles/kiibohd.elf.dir/Macro/PartialMap/macro.c.o
                0x0000000000007a54                layer1_tl_0x0B
 .rodata.layer1_tl_0x39
                0x0000000000007a5c        0x4 CMakeFiles/kiibohd.elf.dir/Macro/PartialMap/macro.c.o
                0x0000000000007a5c                layer1_tl_0x39
 .rodata.layer1_tl_0x0D
                0x0000000000007a60        0x8 CMakeFiles/kiibohd.elf.dir/Macro/PartialMap/macro.c.o
                0x0000000000007a60                layer1_tl_0x0D
 .rodata.layer1_tl_0x0E
                0x0000000000007a68        0x8 CMakeFiles/kiibohd.elf.dir/Macro/PartialMap/macro.c.o
                0x0000000000007a68                layer1_tl_0x0E
 .rodata.layer1_tl_0x0F
                0x0000000000007a70        0x8 CMakeFiles/kiibohd.elf.dir/Macro/PartialMap/macro.c.o
                0x0000000000007a70                layer1_tl_0x0F
 .rodata.tm5_guide
                0x0000000000007a78        0x5 CMakeFiles/kiibohd.elf.dir/Macro/PartialMap/macro.c.o
                0x0000000000007a78                tm5_guide
 .rodata.rm87_guide
                0x0000000000007a7d        0x4 CMakeFiles/kiibohd.elf.dir/Macro/PartialMap/macro.c.o
                0x0000000000007a7d                rm87_guide
 .rodata.tm39_guide
                0x0000000000007a81        0x5 CMakeFiles/kiibohd.elf.dir/Macro/PartialMap/macro.c.o
                0x0000000000007a81                tm39_guide
 .rodata.tm26_guide
                0x0000000000007a86        0x5 CMakeFiles/kiibohd.elf.dir/Macro/PartialMap/macro.c.o
                0x0000000000007a86                tm26_guide
 .rodata.tm77_guide
                0x0000000000007a8b        0x5 CMakeFiles/kiibohd.elf.dir/Macro/PartialMap/macro.c.o
                0x0000000000007a8b                tm77_guide
 .rodata.tm50_guide
                0x0000000000007a90        0x5 CMakeFiles/kiibohd.elf.dir/Macro/PartialMap/macro.c.o
                0x0000000000007a90                tm50_guide
 .rodata.rm22_guide
                0x0000000000007a95        0x4 CMakeFiles/kiibohd.elf.dir/Macro/PartialMap/macro.c.o
                0x0000000000007a95                rm22_guide
 .rodata.rm56_guide
                0x0000000000007a99        0x4 CMakeFiles/kiibohd.elf.dir/Macro/PartialMap/macro.c.o
                0x0000000000007a99                rm56_guide
 .rodata.rm9_guide
                0x0000000000007a9d        0x4 CMakeFiles/kiibohd.elf.dir/Macro/PartialMap/macro.c.o
                0x0000000000007a9d                rm9_guide
 .rodata.tm7_guide
                0x0000000000007aa1        0x5 CMakeFiles/kiibohd.elf.dir/Macro/PartialMap/macro.c.o
                0x0000000000007aa1                tm7_guide
 .rodata.tm87_guide
                0x0000000000007aa6        0x5 CMakeFiles/kiibohd.elf.dir/Macro/PartialMap/macro.c.o
                0x0000000000007aa6                tm87_guide
 .rodata.tm28_guide
                0x0000000000007aab        0x5 CMakeFiles/kiibohd.elf.dir/Macro/PartialMap/macro.c.o
                0x0000000000007aab                tm28_guide
 .rodata.tm89_guide
                0x0000000000007ab0        0x5 CMakeFiles/kiibohd.elf.dir/Macro/PartialMap/macro.c.o
                0x0000000000007ab0                tm89_guide
 *fill*         0x0000000000007ab5        0x3 
 .rodata.default_tl_0x2A
                0x0000000000007ab8        0x8 CMakeFiles/kiibohd.elf.dir/Macro/PartialMap/macro.c.o
                0x0000000000007ab8                default_tl_0x2A
 .rodata.rm82_guide
                0x0000000000007ac0        0x5 CMakeFiles/kiibohd.elf.dir/Macro/PartialMap/macro.c.o
                0x0000000000007ac0                rm82_guide
 .rodata.rm37_guide
                0x0000000000007ac5        0x4 CMakeFiles/kiibohd.elf.dir/Macro/PartialMap/macro.c.o
                0x0000000000007ac5                rm37_guide
 *fill*         0x0000000000007ac9        0x3 
 .rodata.default_tl_0x2C
                0x0000000000007acc        0x8 CMakeFiles/kiibohd.elf.dir/Macro/PartialMap/macro.c.o
                0x0000000000007acc                default_tl_0x2C
 .rodata.default_tl_0x10
                0x0000000000007ad4        0x8 CMakeFiles/kiibohd.elf.dir/Macro/PartialMap/macro.c.o
                0x0000000000007ad4                default_tl_0x10
 .rodata.default_tl_0x11
                0x0000000000007adc        0x8 CMakeFiles/kiibohd.elf.dir/Macro/PartialMap/macro.c.o
                0x0000000000007adc                default_tl_0x11
 .rodata.default_tl_0x12
                0x0000000000007ae4        0x8 CMakeFiles/kiibohd.elf.dir/Macro/PartialMap/macro.c.o
                0x0000000000007ae4                default_tl_0x12
 .rodata.default_tl_0x14
                0x0000000000007aec        0x8 CMakeFiles/kiibohd.elf.dir/Macro/PartialMap/macro.c.o
                0x0000000000007aec                default_tl_0x14
 .rodata.default_tl_0x15
                0x0000000000007af4        0x8 CMakeFiles/kiibohd.elf.dir/Macro/PartialMap/macro.c.o
                0x0000000000007af4                default_tl_0x15
 .rodata.default_tl_0x16
                0x0000000000007afc        0x8 CMakeFiles/kiibohd.elf.dir/Macro/PartialMap/macro.c.o
                0x0000000000007afc                default_tl_0x16
 .rodata.default_tl_0x17
                0x0000000000007b04        0x8 CMakeFiles/kiibohd.elf.dir/Macro/PartialMap/macro.c.o
                0x0000000000007b04                default_tl_0x17
 .rodata.default_tl_0x18
                0x0000000000007b0c        0x8 CMakeFiles/kiibohd.elf.dir/Macro/PartialMap/macro.c.o
                0x0000000000007b0c                default_tl_0x18
 .rodata.default_tl_0x19
                0x0000000000007b14        0x8 CMakeFiles/kiibohd.elf.dir/Macro/PartialMap/macro.c.o
                0x0000000000007b14                default_tl_0x19
 .rodata.tm54_guide
                0x0000000000007b1c        0x5 CMakeFiles/kiibohd.elf.dir/Macro/PartialMap/macro.c.o
                0x0000000000007b1c                tm54_guide
 .rodata.rm12_guide
                0x0000000000007b21        0x4 CMakeFiles/kiibohd.elf.dir/Macro/PartialMap/macro.c.o
                0x0000000000007b21                rm12_guide
 .rodata.rm77_guide
                0x0000000000007b25        0x4 CMakeFiles/kiibohd.elf.dir/Macro/PartialMap/macro.c.o
                0x0000000000007b25                rm77_guide
 .rodata.rm16_guide
                0x0000000000007b29        0x4 CMakeFiles/kiibohd.elf.dir/Macro/PartialMap/macro.c.o
                0x0000000000007b29                rm16_guide
 *fill*         0x0000000000007b2d        0x3 
 .rodata.layer1_tl_0x10
                0x0000000000007b30        0x4 CMakeFiles/kiibohd.elf.dir/Macro/PartialMap/macro.c.o
                0x0000000000007b30                layer1_tl_0x10
 .rodata.layer1_tl_0x11
                0x0000000000007b34        0x4 CMakeFiles/kiibohd.elf.dir/Macro/PartialMap/macro.c.o
                0x0000000000007b34                layer1_tl_0x11
 .rodata.layer1_tl_0x12
                0x0000000000007b38        0x4 CMakeFiles/kiibohd.elf.dir/Macro/PartialMap/macro.c.o
                0x0000000000007b38                layer1_tl_0x12
 .rodata.layer1_tl_0x13
                0x0000000000007b3c        0x4 CMakeFiles/kiibohd.elf.dir/Macro/PartialMap/macro.c.o
                0x0000000000007b3c                layer1_tl_0x13
 .rodata.layer1_tl_0x14
                0x0000000000007b40        0x4 CMakeFiles/kiibohd.elf.dir/Macro/PartialMap/macro.c.o
                0x0000000000007b40                layer1_tl_0x14
 .rodata.layer1_tl_0x15
                0x0000000000007b44        0x4 CMakeFiles/kiibohd.elf.dir/Macro/PartialMap/macro.c.o
                0x0000000000007b44                layer1_tl_0x15
 .rodata.layer1_tl_0x16
                0x0000000000007b48        0x8 CMakeFiles/kiibohd.elf.dir/Macro/PartialMap/macro.c.o
                0x0000000000007b48                layer1_tl_0x16
 .rodata.layer1_tl_0x17
                0x0000000000007b50        0x8 CMakeFiles/kiibohd.elf.dir/Macro/PartialMap/macro.c.o
                0x0000000000007b50                layer1_tl_0x17
 .rodata.layer1_tl_0x18
                0x0000000000007b58        0x8 CMakeFiles/kiibohd.elf.dir/Macro/PartialMap/macro.c.o
                0x0000000000007b58                layer1_tl_0x18
 .rodata.layer1_tl_0x19
                0x0000000000007b60        0x8 CMakeFiles/kiibohd.elf.dir/Macro/PartialMap/macro.c.o
                0x0000000000007b60                layer1_tl_0x19
 .rodata.tm80_guide
                0x0000000000007b68        0x5 CMakeFiles/kiibohd.elf.dir/Macro/PartialMap/macro.c.o
                0x0000000000007b68                tm80_guide
 *fill*         0x0000000000007b6d        0x3 
 .rodata.layer1_tl_0x1A
                0x0000000000007b70        0x8 CMakeFiles/kiibohd.elf.dir/Macro/PartialMap/macro.c.o
                0x0000000000007b70                layer1_tl_0x1A
 .rodata.layer1_tl_0x1B
                0x0000000000007b78        0x8 CMakeFiles/kiibohd.elf.dir/Macro/PartialMap/macro.c.o
                0x0000000000007b78                layer1_tl_0x1B
 .rodata.layer1_tl_0x1C
                0x0000000000007b80        0x8 CMakeFiles/kiibohd.elf.dir/Macro/PartialMap/macro.c.o
                0x0000000000007b80                layer1_tl_0x1C
 .rodata.layer1_tl_0x1D
                0x0000000000007b88        0x8 CMakeFiles/kiibohd.elf.dir/Macro/PartialMap/macro.c.o
                0x0000000000007b88                layer1_tl_0x1D
 .rodata.layer1_tl_0x1E
                0x0000000000007b90        0x4 CMakeFiles/kiibohd.elf.dir/Macro/PartialMap/macro.c.o
                0x0000000000007b90                layer1_tl_0x1E
 .rodata.layer1_tl_0x1F
                0x0000000000007b94        0x4 CMakeFiles/kiibohd.elf.dir/Macro/PartialMap/macro.c.o
                0x0000000000007b94                layer1_tl_0x1F
 .rodata.tm58_guide
                0x0000000000007b98        0x5 CMakeFiles/kiibohd.elf.dir/Macro/PartialMap/macro.c.o
                0x0000000000007b98                tm58_guide
 .rodata.tm21_guide
                0x0000000000007b9d        0x5 CMakeFiles/kiibohd.elf.dir/Macro/PartialMap/macro.c.o
                0x0000000000007b9d                tm21_guide
 .rodata.tm82_guide
                0x0000000000007ba2        0x5 CMakeFiles/kiibohd.elf.dir/Macro/PartialMap/macro.c.o
                0x0000000000007ba2                tm82_guide
 .rodata.rm43_guide
                0x0000000000007ba7        0x4 CMakeFiles/kiibohd.elf.dir/Macro/PartialMap/macro.c.o
                0x0000000000007ba7                rm43_guide
 .rodata.layerStateCLIDict_DescEntry
                0x0000000000007bab       0x87 CMakeFiles/kiibohd.elf.dir/Macro/PartialMap/macro.c.o
                0x0000000000007bab                layerStateCLIDict_DescEntry
 .rodata.rm50_guide
                0x0000000000007c32        0x4 CMakeFiles/kiibohd.elf.dir/Macro/PartialMap/macro.c.o
                0x0000000000007c32                rm50_guide
 .rodata.rm4_guide
                0x0000000000007c36        0x4 CMakeFiles/kiibohd.elf.dir/Macro/PartialMap/macro.c.o
                0x0000000000007c36                rm4_guide
 .rodata.rm86_guide
                0x0000000000007c3a        0x4 CMakeFiles/kiibohd.elf.dir/Macro/PartialMap/macro.c.o
                0x0000000000007c3a                rm86_guide
 .rodata.macroShowCLIDict_DescEntry
                0x0000000000007c3e       0x84 CMakeFiles/kiibohd.elf.dir/Macro/PartialMap/macro.c.o
                0x0000000000007c3e                macroShowCLIDict_DescEntry
 .rodata.rm94_guide
                0x0000000000007cc2        0x5 CMakeFiles/kiibohd.elf.dir/Macro/PartialMap/macro.c.o
                0x0000000000007cc2                rm94_guide
 *fill*         0x0000000000007cc7        0x1 
 .rodata.default_tl_0x3F
                0x0000000000007cc8        0x8 CMakeFiles/kiibohd.elf.dir/Macro/PartialMap/macro.c.o
                0x0000000000007cc8                default_tl_0x3F
 .rodata.rm85_guide
                0x0000000000007cd0        0x7 CMakeFiles/kiibohd.elf.dir/Macro/PartialMap/macro.c.o
                0x0000000000007cd0                rm85_guide
 .rodata.tm33_guide
                0x0000000000007cd7        0x5 CMakeFiles/kiibohd.elf.dir/Macro/PartialMap/macro.c.o
                0x0000000000007cd7                tm33_guide
 .rodata.tm84_guide
                0x0000000000007cdc        0x5 CMakeFiles/kiibohd.elf.dir/Macro/PartialMap/macro.c.o
                0x0000000000007cdc                tm84_guide
 .rodata.rm24_guide
                0x0000000000007ce1        0x4 CMakeFiles/kiibohd.elf.dir/Macro/PartialMap/macro.c.o
                0x0000000000007ce1                rm24_guide
 .rodata.tm66_guide
                0x0000000000007ce5        0x5 CMakeFiles/kiibohd.elf.dir/Macro/PartialMap/macro.c.o
                0x0000000000007ce5                tm66_guide
 .rodata.rm58_guide
                0x0000000000007cea        0x4 CMakeFiles/kiibohd.elf.dir/Macro/PartialMap/macro.c.o
                0x0000000000007cea                rm58_guide
 *fill*         0x0000000000007cee        0x2 
 .rodata.default_tl_0x20
                0x0000000000007cf0        0x8 CMakeFiles/kiibohd.elf.dir/Macro/PartialMap/macro.c.o
                0x0000000000007cf0                default_tl_0x20
 .rodata.default_tl_0x21
                0x0000000000007cf8        0x8 CMakeFiles/kiibohd.elf.dir/Macro/PartialMap/macro.c.o
                0x0000000000007cf8                default_tl_0x21
 .rodata.default_tl_0x22
                0x0000000000007d00        0x8 CMakeFiles/kiibohd.elf.dir/Macro/PartialMap/macro.c.o
                0x0000000000007d00                default_tl_0x22
 .rodata.default_tl_0x23
                0x0000000000007d08        0x8 CMakeFiles/kiibohd.elf.dir/Macro/PartialMap/macro.c.o
                0x0000000000007d08                default_tl_0x23
 .rodata.default_tl_0x24
                0x0000000000007d10        0x8 CMakeFiles/kiibohd.elf.dir/Macro/PartialMap/macro.c.o
                0x0000000000007d10                default_tl_0x24
 .rodata.default_tl_0x25
                0x0000000000007d18        0x8 CMakeFiles/kiibohd.elf.dir/Macro/PartialMap/macro.c.o
                0x0000000000007d18                default_tl_0x25
 .rodata.default_tl_0x26
                0x0000000000007d20        0x8 CMakeFiles/kiibohd.elf.dir/Macro/PartialMap/macro.c.o
                0x0000000000007d20                default_tl_0x26
 .rodata.default_tl_0x27
                0x0000000000007d28        0x8 CMakeFiles/kiibohd.elf.dir/Macro/PartialMap/macro.c.o
                0x0000000000007d28                default_tl_0x27
 .rodata.default_tl_0x28
                0x0000000000007d30        0x8 CMakeFiles/kiibohd.elf.dir/Macro/PartialMap/macro.c.o
                0x0000000000007d30                default_tl_0x28
 .rodata.default_tl_0x29
                0x0000000000007d38        0x8 CMakeFiles/kiibohd.elf.dir/Macro/PartialMap/macro.c.o
                0x0000000000007d38                default_tl_0x29
 .rodata.tm42_guide
                0x0000000000007d40        0x5 CMakeFiles/kiibohd.elf.dir/Macro/PartialMap/macro.c.o
                0x0000000000007d40                tm42_guide
 .rodata.layerListCLIDict_DescEntry
                0x0000000000007d45       0x17 CMakeFiles/kiibohd.elf.dir/Macro/PartialMap/macro.c.o
                0x0000000000007d45                layerListCLIDict_DescEntry
 .rodata.tm51_guide
                0x0000000000007d5c        0x5 CMakeFiles/kiibohd.elf.dir/Macro/PartialMap/macro.c.o
                0x0000000000007d5c                tm51_guide
 *fill*         0x0000000000007d61        0x3 
 .rodata.layer1_tl_0x20
                0x0000000000007d64        0x4 CMakeFiles/kiibohd.elf.dir/Macro/PartialMap/macro.c.o
                0x0000000000007d64                layer1_tl_0x20
 .rodata.default_tl_0x2B
                0x0000000000007d68        0x8 CMakeFiles/kiibohd.elf.dir/Macro/PartialMap/macro.c.o
                0x0000000000007d68                default_tl_0x2B
 .rodata.layer1_tl_0x22
                0x0000000000007d70        0x4 CMakeFiles/kiibohd.elf.dir/Macro/PartialMap/macro.c.o
                0x0000000000007d70                layer1_tl_0x22
 .rodata.layer1_tl_0x23
                0x0000000000007d74        0x4 CMakeFiles/kiibohd.elf.dir/Macro/PartialMap/macro.c.o
                0x0000000000007d74                layer1_tl_0x23
 .rodata.layer1_tl_0x24
                0x0000000000007d78        0x8 CMakeFiles/kiibohd.elf.dir/Macro/PartialMap/macro.c.o
                0x0000000000007d78                layer1_tl_0x24
 .rodata.layer1_tl_0x25
                0x0000000000007d80        0x8 CMakeFiles/kiibohd.elf.dir/Macro/PartialMap/macro.c.o
                0x0000000000007d80                layer1_tl_0x25
 .rodata.layer1_tl_0x26
                0x0000000000007d88        0x8 CMakeFiles/kiibohd.elf.dir/Macro/PartialMap/macro.c.o
                0x0000000000007d88                layer1_tl_0x26
 .rodata.layer1_tl_0x27
                0x0000000000007d90        0x8 CMakeFiles/kiibohd.elf.dir/Macro/PartialMap/macro.c.o
                0x0000000000007d90                layer1_tl_0x27
 .rodata.layer1_tl_0x28
                0x0000000000007d98        0x8 CMakeFiles/kiibohd.elf.dir/Macro/PartialMap/macro.c.o
                0x0000000000007d98                layer1_tl_0x28
 .rodata.layer1_tl_0x29
                0x0000000000007da0        0x8 CMakeFiles/kiibohd.elf.dir/Macro/PartialMap/macro.c.o
                0x0000000000007da0                layer1_tl_0x29
 .rodata.rm90_guide
                0x0000000000007da8        0x4 CMakeFiles/kiibohd.elf.dir/Macro/PartialMap/macro.c.o
                0x0000000000007da8                rm90_guide
 .rodata.tm49_guide
                0x0000000000007dac        0x5 CMakeFiles/kiibohd.elf.dir/Macro/PartialMap/macro.c.o
                0x0000000000007dac                tm49_guide
 .rodata.tm4_guide
                0x0000000000007db1        0x5 CMakeFiles/kiibohd.elf.dir/Macro/PartialMap/macro.c.o
                0x0000000000007db1                tm4_guide
 .rodata.tm9_guide
                0x0000000000007db6        0x5 CMakeFiles/kiibohd.elf.dir/Macro/PartialMap/macro.c.o
                0x0000000000007db6                tm9_guide
 *fill*         0x0000000000007dbb        0x1 
 .rodata.layer1_tl_0x2A
                0x0000000000007dbc        0x4 CMakeFiles/kiibohd.elf.dir/Macro/PartialMap/macro.c.o
                0x0000000000007dbc                layer1_tl_0x2A
 .rodata.layer1_tl_0x2B
                0x0000000000007dc0        0x4 CMakeFiles/kiibohd.elf.dir/Macro/PartialMap/macro.c.o
                0x0000000000007dc0                layer1_tl_0x2B
 .rodata.layer1_tl_0x2C
                0x0000000000007dc4        0x4 CMakeFiles/kiibohd.elf.dir/Macro/PartialMap/macro.c.o
                0x0000000000007dc4                layer1_tl_0x2C
 .rodata.layer1_tl_0x2D
                0x0000000000007dc8        0x8 CMakeFiles/kiibohd.elf.dir/Macro/PartialMap/macro.c.o
                0x0000000000007dc8                layer1_tl_0x2D
 .rodata.layer1_tl_0x2E
                0x0000000000007dd0        0x4 CMakeFiles/kiibohd.elf.dir/Macro/PartialMap/macro.c.o
                0x0000000000007dd0                layer1_tl_0x2E
 .rodata.layer1_tl_0x2F
                0x0000000000007dd4        0x4 CMakeFiles/kiibohd.elf.dir/Macro/PartialMap/macro.c.o
                0x0000000000007dd4                layer1_tl_0x2F
 .rodata.macroCLIDict
                0x0000000000007dd8       0xa8 CMakeFiles/kiibohd.elf.dir/Macro/PartialMap/macro.c.o
                0x0000000000007dd8                macroCLIDict
 .rodata.rm66_guide
                0x0000000000007e80        0x4 CMakeFiles/kiibohd.elf.dir/Macro/PartialMap/macro.c.o
                0x0000000000007e80                rm66_guide
 .rodata.tm63_guide
                0x0000000000007e84        0x5 CMakeFiles/kiibohd.elf.dir/Macro/PartialMap/macro.c.o
                0x0000000000007e84                tm63_guide
 *fill*         0x0000000000007e89        0x3 
 .rodata.default_tl_0x38
                0x0000000000007e8c        0x8 CMakeFiles/kiibohd.elf.dir/Macro/PartialMap/macro.c.o
                0x0000000000007e8c                default_tl_0x38
 .rodata.rm14_guide
                0x0000000000007e94        0x4 CMakeFiles/kiibohd.elf.dir/Macro/PartialMap/macro.c.o
                0x0000000000007e94                rm14_guide
 .rodata.rm65_guide
                0x0000000000007e98        0x4 CMakeFiles/kiibohd.elf.dir/Macro/PartialMap/macro.c.o
                0x0000000000007e98                rm65_guide
 .rodata.tm40_guide
                0x0000000000007e9c        0x5 CMakeFiles/kiibohd.elf.dir/Macro/PartialMap/macro.c.o
                0x0000000000007e9c                tm40_guide
 *fill*         0x0000000000007ea1        0x3 
 .rodata.default_tl_0x3D
                0x0000000000007ea4        0x8 CMakeFiles/kiibohd.elf.dir/Macro/PartialMap/macro.c.o
                0x0000000000007ea4                default_tl_0x3D
 .rodata.rm80_guide
                0x0000000000007eac        0x4 CMakeFiles/kiibohd.elf.dir/Macro/PartialMap/macro.c.o
                0x0000000000007eac                rm80_guide
 .rodata.tm65_guide
                0x0000000000007eb0        0x5 CMakeFiles/kiibohd.elf.dir/Macro/PartialMap/macro.c.o
                0x0000000000007eb0                tm65_guide
 *fill*         0x0000000000007eb5        0x3 
 .rodata.default_tl_0x3E
                0x0000000000007eb8        0x8 CMakeFiles/kiibohd.elf.dir/Macro/PartialMap/macro.c.o
                0x0000000000007eb8                default_tl_0x3E
 .rodata.capSelectCLIDict_DescEntry
                0x0000000000007ec0       0x76 CMakeFiles/kiibohd.elf.dir/Macro/PartialMap/macro.c.o
                0x0000000000007ec0                capSelectCLIDict_DescEntry
 .rodata.tm98_guide
                0x0000000000007f36        0x5 CMakeFiles/kiibohd.elf.dir/Macro/PartialMap/macro.c.o
                0x0000000000007f36                tm98_guide
 .rodata.rm88_guide
                0x0000000000007f3b        0x7 CMakeFiles/kiibohd.elf.dir/Macro/PartialMap/macro.c.o
                0x0000000000007f3b                rm88_guide
 .rodata.tm102_guide
                0x0000000000007f42        0x5 CMakeFiles/kiibohd.elf.dir/Macro/PartialMap/macro.c.o
                0x0000000000007f42                tm102_guide
 .rodata.rm69_guide
                0x0000000000007f47        0x4 CMakeFiles/kiibohd.elf.dir/Macro/PartialMap/macro.c.o
                0x0000000000007f47                rm69_guide
 .rodata.rm67_guide
                0x0000000000007f4b        0x4 CMakeFiles/kiibohd.elf.dir/Macro/PartialMap/macro.c.o
                0x0000000000007f4b                rm67_guide
 .rodata.rm40_guide
                0x0000000000007f4f        0x4 CMakeFiles/kiibohd.elf.dir/Macro/PartialMap/macro.c.o
                0x0000000000007f4f                rm40_guide
 *fill*         0x0000000000007f53        0x1 
 .rodata.default_tl_0x3B
                0x0000000000007f54        0x8 CMakeFiles/kiibohd.elf.dir/Macro/PartialMap/macro.c.o
                0x0000000000007f54                default_tl_0x3B
 .rodata.tm16_guide
                0x0000000000007f5c        0x5 CMakeFiles/kiibohd.elf.dir/Macro/PartialMap/macro.c.o
                0x0000000000007f5c                tm16_guide
 *fill*         0x0000000000007f61        0x3 
 .rodata.default_tl_0x3C
                0x0000000000007f64        0x8 CMakeFiles/kiibohd.elf.dir/Macro/PartialMap/macro.c.o
                0x0000000000007f64                default_tl_0x3C
 .rodata.default_tl_0x30
                0x0000000000007f6c        0x8 CMakeFiles/kiibohd.elf.dir/Macro/PartialMap/macro.c.o
                0x0000000000007f6c                default_tl_0x30
 .rodata.default_tl_0x31
                0x0000000000007f74        0x8 CMakeFiles/kiibohd.elf.dir/Macro/PartialMap/macro.c.o
                0x0000000000007f74                default_tl_0x31
 .rodata.default_tl_0x32
                0x0000000000007f7c        0x8 CMakeFiles/kiibohd.elf.dir/Macro/PartialMap/macro.c.o
                0x0000000000007f7c                default_tl_0x32
 .rodata.default_tl_0x33
                0x0000000000007f84        0x8 CMakeFiles/kiibohd.elf.dir/Macro/PartialMap/macro.c.o
                0x0000000000007f84                default_tl_0x33
 .rodata.default_tl_0x34
                0x0000000000007f8c        0x8 CMakeFiles/kiibohd.elf.dir/Macro/PartialMap/macro.c.o
                0x0000000000007f8c                default_tl_0x34
 .rodata.default_tl_0x35
                0x0000000000007f94        0x8 CMakeFiles/kiibohd.elf.dir/Macro/PartialMap/macro.c.o
                0x0000000000007f94                default_tl_0x35
 .rodata.default_tl_0x36
                0x0000000000007f9c        0x8 CMakeFiles/kiibohd.elf.dir/Macro/PartialMap/macro.c.o
                0x0000000000007f9c                default_tl_0x36
 .rodata.default_tl_0x37
                0x0000000000007fa4        0x8 CMakeFiles/kiibohd.elf.dir/Macro/PartialMap/macro.c.o
                0x0000000000007fa4                default_tl_0x37
 .rodata.tm104_guide
                0x0000000000007fac        0x5 CMakeFiles/kiibohd.elf.dir/Macro/PartialMap/macro.c.o
                0x0000000000007fac                tm104_guide
 *fill*         0x0000000000007fb1        0x3 
 .rodata.default_tl_0x39
                0x0000000000007fb4        0x8 CMakeFiles/kiibohd.elf.dir/Macro/PartialMap/macro.c.o
                0x0000000000007fb4                default_tl_0x39
 .rodata.rm79_guide
                0x0000000000007fbc        0x4 CMakeFiles/kiibohd.elf.dir/Macro/PartialMap/macro.c.o
                0x0000000000007fbc                rm79_guide
 .rodata.rm42_guide
                0x0000000000007fc0        0x4 CMakeFiles/kiibohd.elf.dir/Macro/PartialMap/macro.c.o
                0x0000000000007fc0                rm42_guide
 .rodata.rm93_guide
                0x0000000000007fc4        0x5 CMakeFiles/kiibohd.elf.dir/Macro/PartialMap/macro.c.o
                0x0000000000007fc4                rm93_guide
 .rodata.tm18_guide
                0x0000000000007fc9        0x5 CMakeFiles/kiibohd.elf.dir/Macro/PartialMap/macro.c.o
                0x0000000000007fc9                tm18_guide
 .rodata.tm71_guide
                0x0000000000007fce        0x5 CMakeFiles/kiibohd.elf.dir/Macro/PartialMap/macro.c.o
                0x0000000000007fce                tm71_guide
 .rodata.tm93_guide
                0x0000000000007fd3        0x5 CMakeFiles/kiibohd.elf.dir/Macro/PartialMap/macro.c.o
                0x0000000000007fd3                tm93_guide
 .rodata.default_tl_0x3A
                0x0000000000007fd8        0x8 CMakeFiles/kiibohd.elf.dir/Macro/PartialMap/macro.c.o
                0x0000000000007fd8                default_tl_0x3A
 .rodata.layer1_tl_0x31
                0x0000000000007fe0        0x4 CMakeFiles/kiibohd.elf.dir/Macro/PartialMap/macro.c.o
                0x0000000000007fe0                layer1_tl_0x31
 .rodata.layer1_tl_0x32
                0x0000000000007fe4        0x4 CMakeFiles/kiibohd.elf.dir/Macro/PartialMap/macro.c.o
                0x0000000000007fe4                layer1_tl_0x32
 .rodata.layer1_tl_0x33
                0x0000000000007fe8        0x4 CMakeFiles/kiibohd.elf.dir/Macro/PartialMap/macro.c.o
                0x0000000000007fe8                layer1_tl_0x33
 .rodata.capListCLIDict_DescEntry
                0x0000000000007fec       0x3c CMakeFiles/kiibohd.elf.dir/Macro/PartialMap/macro.c.o
                0x0000000000007fec                capListCLIDict_DescEntry
 .rodata.layer1_tl_0x35
                0x0000000000008028        0x8 CMakeFiles/kiibohd.elf.dir/Macro/PartialMap/macro.c.o
                0x0000000000008028                layer1_tl_0x35
 .rodata.tm106_guide
                0x0000000000008030        0x5 CMakeFiles/kiibohd.elf.dir/Macro/PartialMap/macro.c.o
                0x0000000000008030                tm106_guide
 *fill*         0x0000000000008035        0x3 
 .rodata.layer1_tl_0x37
                0x0000000000008038        0x4 CMakeFiles/kiibohd.elf.dir/Macro/PartialMap/macro.c.o
                0x0000000000008038                layer1_tl_0x37
 .rodata.layer1_tl_0x38
                0x000000000000803c        0x4 CMakeFiles/kiibohd.elf.dir/Macro/PartialMap/macro.c.o
                0x000000000000803c                layer1_tl_0x38
 .rodata.rm47_guide
                0x0000000000008040        0x4 CMakeFiles/kiibohd.elf.dir/Macro/PartialMap/macro.c.o
                0x0000000000008040                rm47_guide
 .rodata.rm39_guide
                0x0000000000008044        0x4 CMakeFiles/kiibohd.elf.dir/Macro/PartialMap/macro.c.o
                0x0000000000008044                rm39_guide
 .rodata.tm44_guide
                0x0000000000008048        0x5 CMakeFiles/kiibohd.elf.dir/Macro/PartialMap/macro.c.o
                0x0000000000008048                tm44_guide
 .rodata.tm95_guide
                0x000000000000804d        0x5 CMakeFiles/kiibohd.elf.dir/Macro/PartialMap/macro.c.o
                0x000000000000804d                tm95_guide
 *fill*         0x0000000000008052        0x2 
 .rodata.layer1_tl_0x21
                0x0000000000008054        0x4 CMakeFiles/kiibohd.elf.dir/Macro/PartialMap/macro.c.o
                0x0000000000008054                layer1_tl_0x21
 .rodata.layer1_tl_0x3C
                0x0000000000008058        0x8 CMakeFiles/kiibohd.elf.dir/Macro/PartialMap/macro.c.o
                0x0000000000008058                layer1_tl_0x3C
 .rodata.layer1_tl_0x3D
                0x0000000000008060        0x8 CMakeFiles/kiibohd.elf.dir/Macro/PartialMap/macro.c.o
                0x0000000000008060                layer1_tl_0x3D
 .rodata.layer1_tl_0x3E
                0x0000000000008068        0x4 CMakeFiles/kiibohd.elf.dir/Macro/PartialMap/macro.c.o
                0x0000000000008068                layer1_tl_0x3E
 .rodata.layer1_tl_0x3F
                0x000000000000806c        0x4 CMakeFiles/kiibohd.elf.dir/Macro/PartialMap/macro.c.o
                0x000000000000806c                layer1_tl_0x3F
 .rodata.LayerIndex
                0x0000000000008070       0x18 CMakeFiles/kiibohd.elf.dir/Macro/PartialMap/macro.c.o
                0x0000000000008070                LayerIndex
 .rodata.layer1_tl_0x44
                0x0000000000008088        0x8 CMakeFiles/kiibohd.elf.dir/Macro/PartialMap/macro.c.o
                0x0000000000008088                layer1_tl_0x44
 .rodata.rm70_guide
                0x0000000000008090        0x6 CMakeFiles/kiibohd.elf.dir/Macro/PartialMap/macro.c.o
                0x0000000000008090                rm70_guide
 .rodata.tm46_guide
                0x0000000000008096        0x5 CMakeFiles/kiibohd.elf.dir/Macro/PartialMap/macro.c.o
                0x0000000000008096                tm46_guide
 .rodata.rm13_guide
                0x000000000000809b        0x4 CMakeFiles/kiibohd.elf.dir/Macro/PartialMap/macro.c.o
                0x000000000000809b                rm13_guide
 .rodata.tm70_guide
                0x000000000000809f        0x5 CMakeFiles/kiibohd.elf.dir/Macro/PartialMap/macro.c.o
                0x000000000000809f                tm70_guide
 .rodata.macroStepCLIDict_DescEntry
                0x00000000000080a4       0x2c CMakeFiles/kiibohd.elf.dir/Macro/PartialMap/macro.c.o
                0x00000000000080a4                macroStepCLIDict_DescEntry
 .rodata.tm30_guide
                0x00000000000080d0        0x5 CMakeFiles/kiibohd.elf.dir/Macro/PartialMap/macro.c.o
                0x00000000000080d0                tm30_guide
 .rodata.rm52_guide
                0x00000000000080d5        0x4 CMakeFiles/kiibohd.elf.dir/Macro/PartialMap/macro.c.o
                0x00000000000080d5                rm52_guide
 .rodata.rm68_guide
                0x00000000000080d9        0x4 CMakeFiles/kiibohd.elf.dir/Macro/PartialMap/macro.c.o
                0x00000000000080d9                rm68_guide
 .rodata.rm1_guide
                0x00000000000080dd        0x4 CMakeFiles/kiibohd.elf.dir/Macro/PartialMap/macro.c.o
                0x00000000000080dd                rm1_guide
 .rodata.rm27_guide
                0x00000000000080e1        0x5 CMakeFiles/kiibohd.elf.dir/Macro/PartialMap/macro.c.o
                0x00000000000080e1                rm27_guide
 .rodata.rm48_guide
                0x00000000000080e6        0x4 CMakeFiles/kiibohd.elf.dir/Macro/PartialMap/macro.c.o
                0x00000000000080e6                rm48_guide
 .rodata.rm11_guide
                0x00000000000080ea        0x4 CMakeFiles/kiibohd.elf.dir/Macro/PartialMap/macro.c.o
                0x00000000000080ea                rm11_guide
 .rodata.tm3_guide
                0x00000000000080ee        0x5 CMakeFiles/kiibohd.elf.dir/Macro/PartialMap/macro.c.o
                0x00000000000080ee                tm3_guide
 .rodata.keyReleaseCLIDict_DescEntry
                0x00000000000080f3       0x6b CMakeFiles/kiibohd.elf.dir/Macro/PartialMap/macro.c.o
                0x00000000000080f3                keyReleaseCLIDict_DescEntry
 .rodata.tm48_guide
                0x000000000000815e        0x5 CMakeFiles/kiibohd.elf.dir/Macro/PartialMap/macro.c.o
                0x000000000000815e                tm48_guide
 .rodata.tm11_guide
                0x0000000000008163        0x5 CMakeFiles/kiibohd.elf.dir/Macro/PartialMap/macro.c.o
                0x0000000000008163                tm11_guide
 .rodata.tm72_guide
                0x0000000000008168        0x5 CMakeFiles/kiibohd.elf.dir/Macro/PartialMap/macro.c.o
                0x0000000000008168                tm72_guide
 .rodata.rm71_guide
                0x000000000000816d        0x4 CMakeFiles/kiibohd.elf.dir/Macro/PartialMap/macro.c.o
                0x000000000000816d                rm71_guide
 *fill*         0x0000000000008171        0x3 
 .rodata.default_tl_0x40
                0x0000000000008174        0x8 CMakeFiles/kiibohd.elf.dir/Macro/PartialMap/macro.c.o
                0x0000000000008174                default_tl_0x40
 .rodata.default_tl_0x41
                0x000000000000817c        0x8 CMakeFiles/kiibohd.elf.dir/Macro/PartialMap/macro.c.o
                0x000000000000817c                default_tl_0x41
 .rodata.default_tl_0x42
                0x0000000000008184        0x8 CMakeFiles/kiibohd.elf.dir/Macro/PartialMap/macro.c.o
                0x0000000000008184                default_tl_0x42
 .rodata.TriggerMacroList
                0x000000000000818c      0x368 CMakeFiles/kiibohd.elf.dir/Macro/PartialMap/macro.c.o
                0x000000000000818c                TriggerMacroList
 .rodata.default_tl_0x44
                0x00000000000084f4        0x8 CMakeFiles/kiibohd.elf.dir/Macro/PartialMap/macro.c.o
                0x00000000000084f4                default_tl_0x44
 .rodata.default_tl_0x45
                0x00000000000084fc        0x8 CMakeFiles/kiibohd.elf.dir/Macro/PartialMap/macro.c.o
                0x00000000000084fc                default_tl_0x45
 .rodata.default_tl_0x46
                0x0000000000008504        0x8 CMakeFiles/kiibohd.elf.dir/Macro/PartialMap/macro.c.o
                0x0000000000008504                default_tl_0x46
 .rodata.tm13_guide
                0x000000000000850c        0x5 CMakeFiles/kiibohd.elf.dir/Macro/PartialMap/macro.c.o
                0x000000000000850c                tm13_guide
 .rodata.tm74_guide
                0x0000000000008511        0x5 CMakeFiles/kiibohd.elf.dir/Macro/PartialMap/macro.c.o
                0x0000000000008511                tm74_guide
 .rodata.rm6_guide
                0x0000000000008516        0x4 CMakeFiles/kiibohd.elf.dir/Macro/PartialMap/macro.c.o
                0x0000000000008516                rm6_guide
 .rodata.rm28_guide
                0x000000000000851a        0x4 CMakeFiles/kiibohd.elf.dir/Macro/PartialMap/macro.c.o
                0x000000000000851a                rm28_guide
 .rodata.tm24_guide
                0x000000000000851e        0x5 CMakeFiles/kiibohd.elf.dir/Macro/PartialMap/macro.c.o
                0x000000000000851e                tm24_guide
 *fill*         0x0000000000008523        0x1 
 .rodata.layer1_tl_0x40
                0x0000000000008524        0x4 CMakeFiles/kiibohd.elf.dir/Macro/PartialMap/macro.c.o
                0x0000000000008524                layer1_tl_0x40
 .rodata.keyHoldCLIDict_DescEntry
                0x0000000000008528       0x6d CMakeFiles/kiibohd.elf.dir/Macro/PartialMap/macro.c.o
                0x0000000000008528                keyHoldCLIDict_DescEntry
 *fill*         0x0000000000008595        0x3 
 .rodata.default_tl_0x1C
                0x0000000000008598        0x8 CMakeFiles/kiibohd.elf.dir/Macro/PartialMap/macro.c.o
                0x0000000000008598                default_tl_0x1C
 .rodata.layer1_tl_0x43
                0x00000000000085a0        0x4 CMakeFiles/kiibohd.elf.dir/Macro/PartialMap/macro.c.o
                0x00000000000085a0                layer1_tl_0x43
 .rodata.macroDebugCLIDict_DescEntry
                0x00000000000085a4       0x51 CMakeFiles/kiibohd.elf.dir/Macro/PartialMap/macro.c.o
                0x00000000000085a4                macroDebugCLIDict_DescEntry
 *fill*         0x00000000000085f5        0x3 
 .rodata.layer1_tl_0x45
                0x00000000000085f8        0x8 CMakeFiles/kiibohd.elf.dir/Macro/PartialMap/macro.c.o
                0x00000000000085f8                layer1_tl_0x45
 .rodata.layer1_tl_0x46
                0x0000000000008600        0x8 CMakeFiles/kiibohd.elf.dir/Macro/PartialMap/macro.c.o
                0x0000000000008600                layer1_tl_0x46
 .rodata.tm25_guide
                0x0000000000008608        0x5 CMakeFiles/kiibohd.elf.dir/Macro/PartialMap/macro.c.o
                0x0000000000008608                tm25_guide
 .rodata.tm76_guide
                0x000000000000860d        0x5 CMakeFiles/kiibohd.elf.dir/Macro/PartialMap/macro.c.o
                0x000000000000860d                tm76_guide
 .rodata.rm17_guide
                0x0000000000008612        0x4 CMakeFiles/kiibohd.elf.dir/Macro/PartialMap/macro.c.o
                0x0000000000008612                rm17_guide
 .rodata.rm76_guide
                0x0000000000008616        0x5 CMakeFiles/kiibohd.elf.dir/Macro/PartialMap/macro.c.o
                0x0000000000008616                rm76_guide
 *fill*         0x000000000000861b        0x1 
 .rodata.ResultMacroList
                0x000000000000861c      0x18c CMakeFiles/kiibohd.elf.dir/Macro/PartialMap/macro.c.o
                0x000000000000861c                ResultMacroList
 .rodata.rm2_guide
                0x00000000000087a8        0x4 CMakeFiles/kiibohd.elf.dir/Macro/PartialMap/macro.c.o
                0x00000000000087a8                rm2_guide
 .rodata.tm6_guide
                0x00000000000087ac        0x5 CMakeFiles/kiibohd.elf.dir/Macro/PartialMap/macro.c.o
                0x00000000000087ac                tm6_guide
 *fill*         0x00000000000087b1        0x3 
 .rodata.default_tl_0x43
                0x00000000000087b4        0x8 CMakeFiles/kiibohd.elf.dir/Macro/PartialMap/macro.c.o
                0x00000000000087b4                default_tl_0x43
 .rodata.default_tl_0x0B
                0x00000000000087bc        0x8 CMakeFiles/kiibohd.elf.dir/Macro/PartialMap/macro.c.o
                0x00000000000087bc                default_tl_0x0B
 .rodata.tm27_guide
                0x00000000000087c4        0x5 CMakeFiles/kiibohd.elf.dir/Macro/PartialMap/macro.c.o
                0x00000000000087c4                tm27_guide
 .rodata.tm78_guide
                0x00000000000087c9        0x5 CMakeFiles/kiibohd.elf.dir/Macro/PartialMap/macro.c.o
                0x00000000000087c9                tm78_guide
 .rodata.tm60_guide
                0x00000000000087ce        0x5 CMakeFiles/kiibohd.elf.dir/Macro/PartialMap/macro.c.o
                0x00000000000087ce                tm60_guide
 .rodata.rm98_guide
                0x00000000000087d3        0x4 CMakeFiles/kiibohd.elf.dir/Macro/PartialMap/macro.c.o
                0x00000000000087d3                rm98_guide
 .rodata.rm31_guide
                0x00000000000087d7        0x4 CMakeFiles/kiibohd.elf.dir/Macro/PartialMap/macro.c.o
                0x00000000000087d7                rm31_guide
 .rodata.tm8_guide
                0x00000000000087db        0x5 CMakeFiles/kiibohd.elf.dir/Macro/PartialMap/macro.c.o
                0x00000000000087db                tm8_guide
 .rodata.rm53_guide
                0x00000000000087e0        0x4 CMakeFiles/kiibohd.elf.dir/Macro/PartialMap/macro.c.o
                0x00000000000087e0                rm53_guide
 .rodata.rm29_guide
                0x00000000000087e4        0x4 CMakeFiles/kiibohd.elf.dir/Macro/PartialMap/macro.c.o
                0x00000000000087e4                rm29_guide
 .rodata.tm29_guide
                0x00000000000087e8        0x5 CMakeFiles/kiibohd.elf.dir/Macro/PartialMap/macro.c.o
                0x00000000000087e8                tm29_guide
 .rodata.rm61_guide
                0x00000000000087ed        0x4 CMakeFiles/kiibohd.elf.dir/Macro/PartialMap/macro.c.o
                0x00000000000087ed                rm61_guide
 .rodata.tm53_guide
                0x00000000000087f1        0x5 CMakeFiles/kiibohd.elf.dir/Macro/PartialMap/macro.c.o
                0x00000000000087f1                tm53_guide
 .rodata.macroListCLIDict_DescEntry
                0x00000000000087f6       0x2c CMakeFiles/kiibohd.elf.dir/Macro/PartialMap/macro.c.o
                0x00000000000087f6                macroListCLIDict_DescEntry
 .rodata.tm67_guide
                0x0000000000008822        0x5 CMakeFiles/kiibohd.elf.dir/Macro/PartialMap/macro.c.o
                0x0000000000008822                tm67_guide
 .rodata.rm75_guide
                0x0000000000008827        0x4 CMakeFiles/kiibohd.elf.dir/Macro/PartialMap/macro.c.o
                0x0000000000008827                rm75_guide
 .rodata.rm45_guide
                0x000000000000882b        0x4 CMakeFiles/kiibohd.elf.dir/Macro/PartialMap/macro.c.o
                0x000000000000882b                rm45_guide
 .rodata.rm63_guide
                0x000000000000882f        0x4 CMakeFiles/kiibohd.elf.dir/Macro/PartialMap/macro.c.o
                0x000000000000882f                rm63_guide
 .rodata.macroProcCLIDict_DescEntry
                0x0000000000008833       0x1f CMakeFiles/kiibohd.elf.dir/Macro/PartialMap/macro.c.o
                0x0000000000008833                macroProcCLIDict_DescEntry
 .rodata.rm55_guide
                0x0000000000008852        0x4 CMakeFiles/kiibohd.elf.dir/Macro/PartialMap/macro.c.o
                0x0000000000008852                rm55_guide
 .rodata.rm84_guide
                0x0000000000008856        0x4 CMakeFiles/kiibohd.elf.dir/Macro/PartialMap/macro.c.o
                0x0000000000008856                rm84_guide
 .rodata.tm55_guide
                0x000000000000885a        0x5 CMakeFiles/kiibohd.elf.dir/Macro/PartialMap/macro.c.o
                0x000000000000885a                tm55_guide
 .rodata.rm96_guide
                0x000000000000885f        0x5 CMakeFiles/kiibohd.elf.dir/Macro/PartialMap/macro.c.o
                0x000000000000885f                rm96_guide
 .rodata.rm30_guide
                0x0000000000008864        0x4 CMakeFiles/kiibohd.elf.dir/Macro/PartialMap/macro.c.o
                0x0000000000008864                rm30_guide
 .rodata.rm23_guide
                0x0000000000008868        0x4 CMakeFiles/kiibohd.elf.dir/Macro/PartialMap/macro.c.o
                0x0000000000008868                rm23_guide
 .rodata.rm26_guide
                0x000000000000886c        0x4 CMakeFiles/kiibohd.elf.dir/Macro/PartialMap/macro.c.o
                0x000000000000886c                rm26_guide
 .rodata.rm57_guide
                0x0000000000008870        0x4 CMakeFiles/kiibohd.elf.dir/Macro/PartialMap/macro.c.o
                0x0000000000008870                rm57_guide
 .rodata.tm88_guide
                0x0000000000008874        0x5 CMakeFiles/kiibohd.elf.dir/Macro/PartialMap/macro.c.o
                0x0000000000008874                tm88_guide
 .rodata.rm81_guide
                0x0000000000008879        0x5 CMakeFiles/kiibohd.elf.dir/Macro/PartialMap/macro.c.o
                0x0000000000008879                rm81_guide
 .rodata.tm108_guide
                0x000000000000887e        0x5 CMakeFiles/kiibohd.elf.dir/Macro/PartialMap/macro.c.o
                0x000000000000887e                tm108_guide
 .rodata.tm20_guide
                0x0000000000008883        0x5 CMakeFiles/kiibohd.elf.dir/Macro/PartialMap/macro.c.o
                0x0000000000008883                tm20_guide
 .rodata.tm81_guide
                0x0000000000008888        0x5 CMakeFiles/kiibohd.elf.dir/Macro/PartialMap/macro.c.o
                0x0000000000008888                tm81_guide
 .rodata.rm21_guide
                0x000000000000888d        0x4 CMakeFiles/kiibohd.elf.dir/Macro/PartialMap/macro.c.o
                0x000000000000888d                rm21_guide
 .rodata.rm59_guide
                0x0000000000008891        0x4 CMakeFiles/kiibohd.elf.dir/Macro/PartialMap/macro.c.o
                0x0000000000008891                rm59_guide
 .rodata.rm32_guide
                0x0000000000008895        0x4 CMakeFiles/kiibohd.elf.dir/Macro/PartialMap/macro.c.o
                0x0000000000008895                rm32_guide
 .rodata.rm83_guide
                0x0000000000008899        0x4 CMakeFiles/kiibohd.elf.dir/Macro/PartialMap/macro.c.o
                0x0000000000008899                rm83_guide
 *fill*         0x000000000000889d        0x3 
 .rodata.layer1_tl_0x30
                0x00000000000088a0        0x4 CMakeFiles/kiibohd.elf.dir/Macro/PartialMap/macro.c.o
                0x00000000000088a0                layer1_tl_0x30
 .rodata.tm59_guide
                0x00000000000088a4        0x5 CMakeFiles/kiibohd.elf.dir/Macro/PartialMap/macro.c.o
                0x00000000000088a4                tm59_guide
 .rodata.tm22_guide
                0x00000000000088a9        0x5 CMakeFiles/kiibohd.elf.dir/Macro/PartialMap/macro.c.o
                0x00000000000088a9                tm22_guide
 .rodata.tm83_guide
                0x00000000000088ae        0x5 CMakeFiles/kiibohd.elf.dir/Macro/PartialMap/macro.c.o
                0x00000000000088ae                tm83_guide
 .rodata.tm0_guide
                0x00000000000088b3        0x5 CMakeFiles/kiibohd.elf.dir/Macro/PartialMap/macro.c.o
                0x00000000000088b3                tm0_guide
 .rodata.str1.1
                0x00000000000088b8       0xb3 CMakeFiles/kiibohd.elf.dir/Macro/PartialMap/trigger.c.o
 .rodata.kbdProtocolCLIDict_DescEntry
                0x000000000000896b       0x33 CMakeFiles/kiibohd.elf.dir/Output/pjrcUSB/output_com.c.o
                0x000000000000896b                kbdProtocolCLIDict_DescEntry
 .rodata.setKeysCLIDict_DescEntry
                0x000000000000899e       0x56 CMakeFiles/kiibohd.elf.dir/Output/pjrcUSB/output_com.c.o
                0x000000000000899e                setKeysCLIDict_DescEntry
 .rodata.outputCLIDictName
                0x00000000000089f4       0x14 CMakeFiles/kiibohd.elf.dir/Output/pjrcUSB/output_com.c.o
                0x00000000000089f4                outputCLIDictName
 .rodata.CSWTCH.90
                0x0000000000008a08       0x70 CMakeFiles/kiibohd.elf.dir/Output/pjrcUSB/output_com.c.o
 .rodata.CSWTCH.87
                0x0000000000008a78       0x2f CMakeFiles/kiibohd.elf.dir/Output/pjrcUSB/output_com.c.o
 .rodata.outputDebugCLIDict_DescEntry
                0x0000000000008aa7       0x1a CMakeFiles/kiibohd.elf.dir/Output/pjrcUSB/output_com.c.o
                0x0000000000008aa7                outputDebugCLIDict_DescEntry
 *fill*         0x0000000000008ac1        0x3 
 .rodata.outputCLIDict
                0x0000000000008ac4       0x60 CMakeFiles/kiibohd.elf.dir/Output/pjrcUSB/output_com.c.o
                0x0000000000008ac4                outputCLIDict
 .rodata.setModCLIDict_DescEntry
                0x0000000000008b24       0x61 CMakeFiles/kiibohd.elf.dir/Output/pjrcUSB/output_com.c.o
                0x0000000000008b24                setModCLIDict_DescEntry
 .rodata.str1.1
                0x0000000000008b85      0x2ee CMakeFiles/kiibohd.elf.dir/Output/pjrcUSB/output_com.c.o
                                        0x2f1 (size before relaxing)
 .rodata.usbInitTimeCLIDict_DescEntry
                0x0000000000008e73       0x42 CMakeFiles/kiibohd.elf.dir/Output/pjrcUSB/output_com.c.o
                0x0000000000008e73                usbInitTimeCLIDict_DescEntry
 .rodata.CSWTCH.91
                0x0000000000008eb5        0x8 CMakeFiles/kiibohd.elf.dir/Output/pjrcUSB/output_com.c.o
 .rodata.CSWTCH.89
                0x0000000000008ebd       0x70 CMakeFiles/kiibohd.elf.dir/Output/pjrcUSB/output_com.c.o
 .rodata.readLEDsCLIDict_DescEntry
                0x0000000000008f2d       0x40 CMakeFiles/kiibohd.elf.dir/Output/pjrcUSB/output_com.c.o
                0x0000000000008f2d                readLEDsCLIDict_DescEntry
 .rodata.CSWTCH.88
                0x0000000000008f6d       0x2f CMakeFiles/kiibohd.elf.dir/Output/pjrcUSB/output_com.c.o
 .rodata.CSWTCH.92
                0x0000000000008f9c       0x30 CMakeFiles/kiibohd.elf.dir/Output/pjrcUSB/output_com.c.o
 .rodata.CSWTCH.93
                0x0000000000008fcc       0x30 CMakeFiles/kiibohd.elf.dir/Output/pjrcUSB/output_com.c.o
 .rodata.sendKeysCLIDict_DescEntry
                0x0000000000008ffc       0x37 CMakeFiles/kiibohd.elf.dir/Output/pjrcUSB/output_com.c.o
                0x0000000000008ffc                sendKeysCLIDict_DescEntry
 .rodata.usb_endpoint_config_table
                0x0000000000009033        0xa CMakeFiles/kiibohd.elf.dir/Output/pjrcUSB/arm/usb_desc.c.o
                0x0000000000009033                usb_endpoint_config_table
 *fill*         0x000000000000903d        0x3 
 .rodata.usb_descriptor_list
                0x0000000000009040      0x114 CMakeFiles/kiibohd.elf.dir/Output/pjrcUSB/arm/usb_desc.c.o
                0x0000000000009040                usb_descriptor_list
 .rodata.str1.1
                0x0000000000009154      0x11e CMakeFiles/kiibohd.elf.dir/Output/pjrcUSB/arm/usb_dev.c.o
                                        0x125 (size before relaxing)
 .rodata.str1.1
                0x0000000000009272       0xc5 CMakeFiles/kiibohd.elf.dir/Output/pjrcUSB/arm/usb_keyboard.c.o
                                         0xca (size before relaxing)
 .rodata.str1.1
                0x0000000000009337       0x2f CMakeFiles/kiibohd.elf.dir/Output/pjrcUSB/arm/usb_mouse.c.o
                                         0x5c (size before relaxing)
 .rodata        0x0000000000009366        0x4 CMakeFiles/kiibohd.elf.dir/Debug/cli/cli.c.o
 .rodata.helpCLIDict_DescEntry
                0x000000000000936a       0x18 CMakeFiles/kiibohd.elf.dir/Debug/cli/cli.c.o
                0x000000000000936a                helpCLIDict_DescEntry
 .rodata.restartCLIDict_DescEntry
                0x0000000000009382       0x47 CMakeFiles/kiibohd.elf.dir/Debug/cli/cli.c.o
                0x0000000000009382                restartCLIDict_DescEntry
 .rodata.clearCLIDict_DescEntry
                0x00000000000093c9       0x12 CMakeFiles/kiibohd.elf.dir/Debug/cli/cli.c.o
                0x00000000000093c9                clearCLIDict_DescEntry
 .rodata.reloadCLIDict_DescEntry
                0x00000000000093db       0x2b CMakeFiles/kiibohd.elf.dir/Debug/cli/cli.c.o
                0x00000000000093db                reloadCLIDict_DescEntry
 .rodata.versionCLIDict_DescEntry
                0x0000000000009406       0x29 CMakeFiles/kiibohd.elf.dir/Debug/cli/cli.c.o
                0x0000000000009406                versionCLIDict_DescEntry
 .rodata.str1.1
                0x000000000000942f      0x475 CMakeFiles/kiibohd.elf.dir/Debug/cli/cli.c.o
                                        0x517 (size before relaxing)
 .rodata.resetCLIDict_DescEntry
                0x00000000000098a4       0x2e CMakeFiles/kiibohd.elf.dir/Debug/cli/cli.c.o
                0x00000000000098a4                resetCLIDict_DescEntry
 *fill*         0x00000000000098d2        0x2 
 .rodata.basicCLIDict
                0x00000000000098d4       0x6c CMakeFiles/kiibohd.elf.dir/Debug/cli/cli.c.o
                0x00000000000098d4                basicCLIDict
 .rodata.ledCLIDict_DescEntry
                0x0000000000009940       0x96 CMakeFiles/kiibohd.elf.dir/Debug/cli/cli.c.o
                0x0000000000009940                ledCLIDict_DescEntry
 .rodata.basicCLIDictName
                0x00000000000099d6       0x11 CMakeFiles/kiibohd.elf.dir/Debug/cli/cli.c.o
                0x00000000000099d6                basicCLIDictName
 .rodata.cliDebugCLIDict_DescEntry
                0x00000000000099e7       0x3a CMakeFiles/kiibohd.elf.dir/Debug/cli/cli.c.o
                0x00000000000099e7                cliDebugCLIDict_DescEntry
                0x0000000000009a24                . = ALIGN (0x4)
 *fill*         0x0000000000009a21        0x3 
 *(.init)

.glue_7         0x0000000000009a24        0x0
 .glue_7        0x0000000000009a24        0x0 linker stubs

.glue_7t        0x0000000000009a24        0x0
 .glue_7t       0x0000000000009a24        0x0 linker stubs

.vfp11_veneer   0x0000000000009a24        0x0
 .vfp11_veneer  0x0000000000009a24        0x0 linker stubs

.v4_bx          0x0000000000009a24        0x0
 .v4_bx         0x0000000000009a24        0x0 linker stubs

.iplt           0x0000000000009a24        0x0
 .iplt          0x0000000000009a24        0x0 CMakeFiles/kiibohd.elf.dir/main.c.o

.rel.dyn        0x0000000000009a24        0x0
 .rel.iplt      0x0000000000009a24        0x0 CMakeFiles/kiibohd.elf.dir/main.c.o

.ARM.exidx      0x0000000000009a24        0x0
                0x0000000000009a24                __exidx_start = .
 *(.ARM.exidx* .gnu.linkonce.armexidx.*)
                0x0000000000009a24                __exidx_end = .
                0x0000000000009a24                _etext = .

.usbdescriptortable
                0x000000001fff8000      0x160
                0x000000001fff8000                . = ALIGN (0x200)
 *(.usbdescriptortable*)
 .usbdescriptortable
                0x000000001fff8000      0x160 CMakeFiles/kiibohd.elf.dir/Output/pjrcUSB/arm/usb_dev.c.o

.dmabuffers     0x000000001fff8160        0x0
                0x000000001fff8160                . = ALIGN (0x4)
 *(.dmabuffers*)

.usbbuffers     0x000000001fff8160      0x870
                0x000000001fff8160                . = ALIGN (0x4)
 *(.usbbuffers*)
 .usbbuffers    0x000000001fff8160      0x870 CMakeFiles/kiibohd.elf.dir/Output/pjrcUSB/arm/usb_mem.c.o
                0x000000001fff8160                usb_buffer_memory

.data           0x000000001fff89d0      0x61c load address 0x0000000000009a24
                0x000000001fff89d0                . = ALIGN (0x4)
                0x000000001fff89d0                _sdata = .
 *(.data*)
 .data.I2C_RxBuffer
                0x000000001fff89d0        0xc CMakeFiles/kiibohd.elf.dir/Scan/ISSILed/led_scan.c.o
                0x000000001fff89d0                I2C_RxBuffer
 .data.I2C_TxBuffer
                0x000000001fff89dc        0xc CMakeFiles/kiibohd.elf.dir/Scan/ISSILed/led_scan.c.o
                0x000000001fff89dc                I2C_TxBuffer
 .data.Matrix_cols
                0x000000001fff89e8       0x12 CMakeFiles/kiibohd.elf.dir/Scan/MatrixARM/matrix_scan.c.o
                0x000000001fff89e8                Matrix_cols
 .data.Matrix_rows
                0x000000001fff89fa       0x10 CMakeFiles/kiibohd.elf.dir/Scan/MatrixARM/matrix_scan.c.o
                0x000000001fff89fa                Matrix_rows
 .data.Matrix_type
                0x000000001fff8a0a        0x1 CMakeFiles/kiibohd.elf.dir/Scan/MatrixARM/matrix_scan.c.o
                0x000000001fff8a0a                Matrix_type
 *fill*         0x000000001fff8a0b        0x1 
 .data.default_scanMap
                0x000000001fff8a0c      0x11c CMakeFiles/kiibohd.elf.dir/Macro/PartialMap/macro.c.o
                0x000000001fff8a0c                default_scanMap
 .data.layer1_scanMap
                0x000000001fff8b28      0x11c CMakeFiles/kiibohd.elf.dir/Macro/PartialMap/macro.c.o
                0x000000001fff8b28                layer1_scanMap
 .data.USBKeys_Protocol
                0x000000001fff8c44        0x1 CMakeFiles/kiibohd.elf.dir/Output/pjrcUSB/output_com.c.o
                0x000000001fff8c44                USBKeys_Protocol
 .data.nkro_keyboard_report_desc
                0x000000001fff8c45       0x7d CMakeFiles/kiibohd.elf.dir/Output/pjrcUSB/arm/usb_desc.c.o
 .data.usb_string_cdc_data_name
                0x000000001fff8cc2       0x38 CMakeFiles/kiibohd.elf.dir/Output/pjrcUSB/arm/usb_desc.c.o
                0x000000001fff8cc2                usb_string_cdc_data_name
 .data.usb_string_mouse_name
                0x000000001fff8cfa        0xe CMakeFiles/kiibohd.elf.dir/Output/pjrcUSB/arm/usb_desc.c.o
                0x000000001fff8cfa                usb_string_mouse_name
 .data.usb_string_sys_ctrl_name
                0x000000001fff8d08       0x18 CMakeFiles/kiibohd.elf.dir/Output/pjrcUSB/arm/usb_desc.c.o
                0x000000001fff8d08                usb_string_sys_ctrl_name
 .data.usb_bMaxPower
                0x000000001fff8d20        0x4 CMakeFiles/kiibohd.elf.dir/Output/pjrcUSB/arm/usb_desc.c.o
                0x000000001fff8d20                usb_bMaxPower
 .data.config_descriptor
                0x000000001fff8d24       0xaf CMakeFiles/kiibohd.elf.dir/Output/pjrcUSB/arm/usb_desc.c.o
 .data.mouse_report_desc
                0x000000001fff8dd3       0x33 CMakeFiles/kiibohd.elf.dir/Output/pjrcUSB/arm/usb_desc.c.o
 .data.sys_ctrl_report_desc
                0x000000001fff8e06       0x35 CMakeFiles/kiibohd.elf.dir/Output/pjrcUSB/arm/usb_desc.c.o
 *fill*         0x000000001fff8e3b        0x1 
 .data.usb_string_keyboard_name
                0x000000001fff8e3c       0x1e CMakeFiles/kiibohd.elf.dir/Output/pjrcUSB/arm/usb_desc.c.o
                0x000000001fff8e3c                usb_string_keyboard_name
 .data.device_descriptor
                0x000000001fff8e5a       0x12 CMakeFiles/kiibohd.elf.dir/Output/pjrcUSB/arm/usb_desc.c.o
 .data.usb_string_cdc_status_name
                0x000000001fff8e6c       0x3c CMakeFiles/kiibohd.elf.dir/Output/pjrcUSB/arm/usb_desc.c.o
                0x000000001fff8e6c                usb_string_cdc_status_name
 .data.usb_string_manufacturer_name_default
                0x000000001fff8ea8       0x18 CMakeFiles/kiibohd.elf.dir/Output/pjrcUSB/arm/usb_desc.c.o
                0x000000001fff8ea8                usb_string_manufacturer_name_default
                0x000000001fff8ea8                usb_string_manufacturer_name
 .data.usb_string_nkro_keyboard_name
                0x000000001fff8ec0       0x1e CMakeFiles/kiibohd.elf.dir/Output/pjrcUSB/arm/usb_desc.c.o
                0x000000001fff8ec0                usb_string_nkro_keyboard_name
 .data.usb_string_product_name_default
                0x000000001fff8ede       0x5a CMakeFiles/kiibohd.elf.dir/Output/pjrcUSB/arm/usb_desc.c.o
                0x000000001fff8ede                usb_string_product_name
                0x000000001fff8ede                usb_string_product_name_default
 .data.keyboard_report_desc
                0x000000001fff8f38       0x3f CMakeFiles/kiibohd.elf.dir/Output/pjrcUSB/arm/usb_desc.c.o
 *fill*         0x000000001fff8f77        0x1 
 .data.string0  0x000000001fff8f78        0x4 CMakeFiles/kiibohd.elf.dir/Output/pjrcUSB/arm/usb_desc.c.o
                0x000000001fff8f78                string0
 .data.usb_string_serial_number_default
                0x000000001fff8f7c       0x64 CMakeFiles/kiibohd.elf.dir/Output/pjrcUSB/arm/usb_desc.c.o
                0x000000001fff8f7c                usb_string_serial_number_default
                0x000000001fff8f7c                usb_string_serial_number
 .data.usb_buffer_available
                0x000000001fff8fe0        0x4 CMakeFiles/kiibohd.elf.dir/Output/pjrcUSB/arm/usb_mem.c.o
 .data.usb_cdc_line_coding
                0x000000001fff8fe4        0x8 CMakeFiles/kiibohd.elf.dir/Output/pjrcUSB/arm/usb_serial.c.o
                0x000000001fff8fe4                usb_cdc_line_coding
                0x000000001fff8fec                . = ALIGN (0x4)
                0x000000001fff8fec                _edata = .

.igot.plt       0x000000001fff8fec        0x0 load address 0x000000000000a040
 .igot.plt      0x000000001fff8fec        0x0 CMakeFiles/kiibohd.elf.dir/main.c.o

.noinit
 *(.noinit*)

.bss            0x000000001fff8fec     0x12ac load address 0x000000000000a040
                0x000000001fff8fec                . = ALIGN (0x4)
                0x000000001fff8fec                _sbss = .
 *(.bss*)
 .bss.systick_millis_count
                0x000000001fff8fec        0x4 CMakeFiles/kiibohd.elf.dir/Lib/delay.c.o
                0x000000001fff8fec                systick_millis_count
 .bss.LED_currentEvent
                0x000000001fff8ff0        0x4 CMakeFiles/kiibohd.elf.dir/Scan/ISSILed/led_scan.c.o
                0x000000001fff8ff0                LED_currentEvent
 .bss.LED_control_timer
                0x000000001fff8ff4        0x1 CMakeFiles/kiibohd.elf.dir/Scan/ISSILed/led_scan.c.o
                0x000000001fff8ff4                LED_control_timer
 *fill*         0x000000001fff8ff5        0x1 
 .bss.matrixCurScans
                0x000000001fff8ff6        0x2 CMakeFiles/kiibohd.elf.dir/Scan/MatrixARM/matrix_scan.c.o
                0x000000001fff8ff6                matrixCurScans
 .bss.matrixPrevScans
                0x000000001fff8ff8        0x2 CMakeFiles/kiibohd.elf.dir/Scan/MatrixARM/matrix_scan.c.o
                0x000000001fff8ff8                matrixPrevScans
 .bss.matrixMaxScans
                0x000000001fff8ffa        0x2 CMakeFiles/kiibohd.elf.dir/Scan/MatrixARM/matrix_scan.c.o
                0x000000001fff8ffa                matrixMaxScans
 .bss.matrixDebugMode
                0x000000001fff8ffc        0x1 CMakeFiles/kiibohd.elf.dir/Scan/MatrixARM/matrix_scan.c.o
                0x000000001fff8ffc                matrixDebugMode
 *fill*         0x000000001fff8ffd        0x1 
 .bss.matrixDebugStateCounter
                0x000000001fff8ffe        0x2 CMakeFiles/kiibohd.elf.dir/Scan/MatrixARM/matrix_scan.c.o
                0x000000001fff8ffe                matrixDebugStateCounter
 .bss.Scan_scanCount
                0x000000001fff9000        0x2 CMakeFiles/kiibohd.elf.dir/Scan/WhiteFox/scan_loop.c.o
                0x000000001fff9000                Scan_scanCount
 .bss.macroDebugMode
                0x000000001fff9002        0x1 CMakeFiles/kiibohd.elf.dir/Macro/PartialMap/macro.c.o
                0x000000001fff9002                macroDebugMode
 .bss.macroPauseMode
                0x000000001fff9003        0x1 CMakeFiles/kiibohd.elf.dir/Macro/PartialMap/macro.c.o
                0x000000001fff9003                macroPauseMode
 .bss.macroStepCounter
                0x000000001fff9004        0x2 CMakeFiles/kiibohd.elf.dir/Macro/PartialMap/macro.c.o
                0x000000001fff9004                macroStepCounter
 .bss.macroTriggerListBufferSize
                0x000000001fff9006        0x1 CMakeFiles/kiibohd.elf.dir/Macro/PartialMap/macro.c.o
                0x000000001fff9006                macroTriggerListBufferSize
 *fill*         0x000000001fff9007        0x1 
 .bss.macroLayerIndexStackSize
                0x000000001fff9008        0x2 CMakeFiles/kiibohd.elf.dir/Macro/PartialMap/macro.c.o
                0x000000001fff9008                macroLayerIndexStackSize
 .bss.macroLayerIndexStack
                0x000000001fff900a        0x6 CMakeFiles/kiibohd.elf.dir/Macro/PartialMap/macro.c.o
                0x000000001fff900a                macroLayerIndexStack
 .bss.layerDebugMode
                0x000000001fff9010        0x1 CMakeFiles/kiibohd.elf.dir/Macro/PartialMap/macro.c.o
                0x000000001fff9010                layerDebugMode
 *fill*         0x000000001fff9011        0x1 
 .bss.macroTriggerMacroPendingListSize
                0x000000001fff9012        0x2 CMakeFiles/kiibohd.elf.dir/Macro/PartialMap/trigger.c.o
                0x000000001fff9012                macroTriggerMacroPendingListSize
 .bss.macroTriggerMacroPendingList
                0x000000001fff9014       0xda CMakeFiles/kiibohd.elf.dir/Macro/PartialMap/trigger.c.o
                0x000000001fff9014                macroTriggerMacroPendingList
 .bss.USBMouse_Buttons
                0x000000001fff90ee        0x2 CMakeFiles/kiibohd.elf.dir/Output/pjrcUSB/output_com.c.o
                0x000000001fff90ee                USBMouse_Buttons
 .bss.USBKeys_Modifiers
                0x000000001fff90f0        0x1 CMakeFiles/kiibohd.elf.dir/Output/pjrcUSB/output_com.c.o
                0x000000001fff90f0                USBKeys_Modifiers
 .bss.USBKeys_Changed
                0x000000001fff90f1        0x1 CMakeFiles/kiibohd.elf.dir/Output/pjrcUSB/output_com.c.o
                0x000000001fff90f1                USBKeys_Changed
 .bss.Output_USBCurrent_Available
                0x000000001fff90f2        0x2 CMakeFiles/kiibohd.elf.dir/Output/pjrcUSB/output_com.c.o
                0x000000001fff90f2                Output_USBCurrent_Available
 .bss.USBMouse_Changed
                0x000000001fff90f4        0x1 CMakeFiles/kiibohd.elf.dir/Output/pjrcUSB/output_com.c.o
                0x000000001fff90f4                USBMouse_Changed
 *fill*         0x000000001fff90f5        0x1 
 .bss.Output_ExtCurrent_Available
                0x000000001fff90f6        0x2 CMakeFiles/kiibohd.elf.dir/Output/pjrcUSB/output_com.c.o
                0x000000001fff90f6                Output_ExtCurrent_Available
 .bss.USBMouse_Relative_x
                0x000000001fff90f8        0x2 CMakeFiles/kiibohd.elf.dir/Output/pjrcUSB/output_com.c.o
                0x000000001fff90f8                USBMouse_Relative_x
 .bss.USBMouse_Relative_y
                0x000000001fff90fa        0x2 CMakeFiles/kiibohd.elf.dir/Output/pjrcUSB/output_com.c.o
                0x000000001fff90fa                USBMouse_Relative_y
 .bss.USBKeys_Idle_Config
                0x000000001fff90fc        0x1 CMakeFiles/kiibohd.elf.dir/Output/pjrcUSB/output_com.c.o
                0x000000001fff90fc                USBKeys_Idle_Config
 .bss.USBKeys_LEDs
                0x000000001fff90fd        0x1 CMakeFiles/kiibohd.elf.dir/Output/pjrcUSB/output_com.c.o
                0x000000001fff90fd                USBKeys_LEDs
 *fill*         0x000000001fff90fe        0x2 
 .bss.USBKeys_Idle_Expiry
                0x000000001fff9100        0x4 CMakeFiles/kiibohd.elf.dir/Output/pjrcUSB/output_com.c.o
                0x000000001fff9100                USBKeys_Idle_Expiry
 .bss.Output_Available
                0x000000001fff9104        0x1 CMakeFiles/kiibohd.elf.dir/Output/pjrcUSB/output_com.c.o
                0x000000001fff9104                Output_Available
 .bss.Output_DebugMode
                0x000000001fff9105        0x1 CMakeFiles/kiibohd.elf.dir/Output/pjrcUSB/output_com.c.o
                0x000000001fff9105                Output_DebugMode
 .bss.USBKeys_ModifiersCLI
                0x000000001fff9106        0x1 CMakeFiles/kiibohd.elf.dir/Output/pjrcUSB/output_com.c.o
                0x000000001fff9106                USBKeys_ModifiersCLI
 .bss.usb_debug_descriptor
                0x000000001fff9107        0x1 CMakeFiles/kiibohd.elf.dir/Output/pjrcUSB/arm/usb_desc.c.o
 .bss.device_qualifier_descriptor
                0x000000001fff9108        0x1 CMakeFiles/kiibohd.elf.dir/Output/pjrcUSB/arm/usb_desc.c.o
 *fill*         0x000000001fff9109        0x3 
 .bss.ep0_tx_ptr
                0x000000001fff910c        0x4 CMakeFiles/kiibohd.elf.dir/Output/pjrcUSB/arm/usb_dev.c.o
 .bss.rx_last   0x000000001fff9110       0x28 CMakeFiles/kiibohd.elf.dir/Output/pjrcUSB/arm/usb_dev.c.o
 .bss.tx_state  0x000000001fff9138        0xa CMakeFiles/kiibohd.elf.dir/Output/pjrcUSB/arm/usb_dev.c.o
 .bss.power_neg_delay
                0x000000001fff9142        0x1 CMakeFiles/kiibohd.elf.dir/Output/pjrcUSB/arm/usb_dev.c.o
 *fill*         0x000000001fff9143        0x1 
 .bss.ep0_tx_len
                0x000000001fff9144        0x2 CMakeFiles/kiibohd.elf.dir/Output/pjrcUSB/arm/usb_dev.c.o
 *fill*         0x000000001fff9146        0x2 
 .bss.ep0_rx0_buf
                0x000000001fff9148       0x40 CMakeFiles/kiibohd.elf.dir/Output/pjrcUSB/arm/usb_dev.c.o
 .bss.rx_first  0x000000001fff9188       0x28 CMakeFiles/kiibohd.elf.dir/Output/pjrcUSB/arm/usb_dev.c.o
 .bss.ep0_tx_bdt_bank
                0x000000001fff91b0        0x1 CMakeFiles/kiibohd.elf.dir/Output/pjrcUSB/arm/usb_dev.c.o
 .bss.usb_reboot_timer
                0x000000001fff91b1        0x1 CMakeFiles/kiibohd.elf.dir/Output/pjrcUSB/arm/usb_dev.c.o
                0x000000001fff91b1                usb_reboot_timer
 *fill*         0x000000001fff91b2        0x2 
 .bss.ep0_rx1_buf
                0x000000001fff91b4       0x40 CMakeFiles/kiibohd.elf.dir/Output/pjrcUSB/arm/usb_dev.c.o
 .bss.tx_first  0x000000001fff91f4       0x28 CMakeFiles/kiibohd.elf.dir/Output/pjrcUSB/arm/usb_dev.c.o
 .bss.tx_last   0x000000001fff921c       0x28 CMakeFiles/kiibohd.elf.dir/Output/pjrcUSB/arm/usb_dev.c.o
 .bss.setup     0x000000001fff9244        0x8 CMakeFiles/kiibohd.elf.dir/Output/pjrcUSB/arm/usb_dev.c.o
 .bss.power_neg_time
                0x000000001fff924c        0x4 CMakeFiles/kiibohd.elf.dir/Output/pjrcUSB/arm/usb_dev.c.o
 .bss.usb_dev_sleep
                0x000000001fff9250        0x1 CMakeFiles/kiibohd.elf.dir/Output/pjrcUSB/arm/usb_dev.c.o
 .bss.usb_rx_memory_needed
                0x000000001fff9251        0x1 CMakeFiles/kiibohd.elf.dir/Output/pjrcUSB/arm/usb_dev.c.o
                0x000000001fff9251                usb_rx_memory_needed
 .bss.reply_buffer
                0x000000001fff9252        0x8 CMakeFiles/kiibohd.elf.dir/Output/pjrcUSB/arm/usb_dev.c.o
 .bss.usb_configuration
                0x000000001fff925a        0x1 CMakeFiles/kiibohd.elf.dir/Output/pjrcUSB/arm/usb_dev.c.o
                0x000000001fff925a                usb_configuration
 .bss.ep0_tx_data_toggle
                0x000000001fff925b        0x1 CMakeFiles/kiibohd.elf.dir/Output/pjrcUSB/arm/usb_dev.c.o
 .bss.transmit_previous_timeout
                0x000000001fff925c        0x1 CMakeFiles/kiibohd.elf.dir/Output/pjrcUSB/arm/usb_keyboard.c.o
 .bss.transmit_previous_timeout
                0x000000001fff925d        0x1 CMakeFiles/kiibohd.elf.dir/Output/pjrcUSB/arm/usb_mouse.c.o
 .bss.usb_cdc_transmit_flush_timer
                0x000000001fff925e        0x1 CMakeFiles/kiibohd.elf.dir/Output/pjrcUSB/arm/usb_serial.c.o
                0x000000001fff925e                usb_cdc_transmit_flush_timer
 .bss.tx_noautoflush
                0x000000001fff925f        0x1 CMakeFiles/kiibohd.elf.dir/Output/pjrcUSB/arm/usb_serial.c.o
 .bss.tx_packet
                0x000000001fff9260        0x4 CMakeFiles/kiibohd.elf.dir/Output/pjrcUSB/arm/usb_serial.c.o
 .bss.transmit_previous_timeout
                0x000000001fff9264        0x1 CMakeFiles/kiibohd.elf.dir/Output/pjrcUSB/arm/usb_serial.c.o
 *fill*         0x000000001fff9265        0x3 
 .bss.rx_packet
                0x000000001fff9268        0x4 CMakeFiles/kiibohd.elf.dir/Output/pjrcUSB/arm/usb_serial.c.o
 .bss.usb_cdc_line_rtsdtr
                0x000000001fff926c        0x1 CMakeFiles/kiibohd.elf.dir/Output/pjrcUSB/arm/usb_serial.c.o
                0x000000001fff926c                usb_cdc_line_rtsdtr
 *(COMMON)
 *fill*         0x000000001fff926d        0x3 
 COMMON         0x000000001fff9270      0x4a9 CMakeFiles/kiibohd.elf.dir/main.c.o
                0x000000001fff9270                CLIHexDebugMode
                0x000000001fff9271                CLIHistoryCurrent
                0x000000001fff9272                CLILEDState
                0x000000001fff9273                CLIDictionariesUsed
                0x000000001fff9274                CLIHistoryBuffer
                0x000000001fff965c                CLILineBuffer
                0x000000001fff96c1                CLIHistoryHead
                0x000000001fff96c4                CLIDict
                0x000000001fff96ec                CLIHistoryTail
                0x000000001fff96f0                CLIDictNames
                0x000000001fff9718                CLILineBufferCurrent
 COMMON         0x000000001fff9719      0x2ea CMakeFiles/kiibohd.elf.dir/Scan/ISSILed/led_scan.c.o
                0x000000001fff9719                I2C_RxBufferPtr
                0x000000001fff9845                LED_pageBuffer
                0x000000001fff98d7                I2C_TxBufferPtr
 COMMON         0x000000001fff9a03      0x1f8 CMakeFiles/kiibohd.elf.dir/Scan/MatrixARM/matrix_scan.c.o
                0x000000001fff9a03                Matrix_scanArray
 *fill*         0x000000001fff9bfb        0x1 
 COMMON         0x000000001fff9bfc      0x31f CMakeFiles/kiibohd.elf.dir/Macro/PartialMap/macro.c.o
                0x000000001fff9bfc                Macro_rotationLayer
                0x000000001fff9bfe                macroTriggerListBuffer
                0x000000001fff9cd0                ResultMacroRecordList
                0x000000001fff9df9                LayerState
                0x000000001fff9dfb                macroTriggerListLayerCache
                0x000000001fff9e41                TriggerMacroRecordList
 *fill*         0x000000001fff9f1b        0x1 
 COMMON         0x000000001fff9f1c      0x31c CMakeFiles/kiibohd.elf.dir/Macro/PartialMap/result.c.o
                0x000000001fff9f1c                macroResultMacroPendingList
 COMMON         0x000000001fffa238       0x4a CMakeFiles/kiibohd.elf.dir/Output/pjrcUSB/output_com.c.o
                0x000000001fffa238                USBKeys_SentCLI
                0x000000001fffa23c                USBInit_TimeEnd
                0x000000001fffa240                USBKeys_SysCtrl
                0x000000001fffa242                USBInit_Ticks
                0x000000001fffa244                USBKeys_Keys
                0x000000001fffa25f                USBKeys_Sent
                0x000000001fffa260                USBKeys_KeysCLI
                0x000000001fffa27c                USBInit_TimeStart
                0x000000001fffa280                USBKeys_ConsCtrl
 COMMON         0x000000001fffa282       0x14 CMakeFiles/kiibohd.elf.dir/Output/pjrcUSB/arm/usb_dev.c.o
                0x000000001fffa282                usb_rx_byte_count_data
                0x000000001fffa298                . = ALIGN (0x4)
 *fill*         0x000000001fffa296        0x2 
                0x000000001fffa298                _ebss = .
                0x000000001fffa298                __bss_end = .
                0x0000000020008000                _estack = (ORIGIN (RAM) + LENGTH (RAM))
OUTPUT(kiibohd.elf elf32-littlearm)

.debug_info     0x0000000000000000     0xdd70
 .debug_info    0x0000000000000000      0x2c9 CMakeFiles/kiibohd.elf.dir/main.c.o
 .debug_info    0x00000000000002c9      0x641 CMakeFiles/kiibohd.elf.dir/Lib/mk20dx.c.o
 .debug_info    0x000000000000090a      0x141 CMakeFiles/kiibohd.elf.dir/Lib/delay.c.o
 .debug_info    0x0000000000000a4b     0x1958 CMakeFiles/kiibohd.elf.dir/Scan/ISSILed/led_scan.c.o
 .debug_info    0x00000000000023a3      0xdf1 CMakeFiles/kiibohd.elf.dir/Scan/MatrixARM/matrix_scan.c.o
 .debug_info    0x0000000000003194      0x396 CMakeFiles/kiibohd.elf.dir/Scan/WhiteFox/scan_loop.c.o
 .debug_info    0x000000000000352a     0x48fe CMakeFiles/kiibohd.elf.dir/Macro/PartialMap/macro.c.o
 .debug_info    0x0000000000007e28      0x4a9 CMakeFiles/kiibohd.elf.dir/Macro/PartialMap/result.c.o
 .debug_info    0x00000000000082d1      0x824 CMakeFiles/kiibohd.elf.dir/Macro/PartialMap/trigger.c.o
 .debug_info    0x0000000000008af5     0x1382 CMakeFiles/kiibohd.elf.dir/Output/pjrcUSB/output_com.c.o
 .debug_info    0x0000000000009e77      0x392 CMakeFiles/kiibohd.elf.dir/Output/pjrcUSB/arm/usb_desc.c.o
 .debug_info    0x000000000000a209      0xe45 CMakeFiles/kiibohd.elf.dir/Output/pjrcUSB/arm/usb_dev.c.o
 .debug_info    0x000000000000b04e      0x6c8 CMakeFiles/kiibohd.elf.dir/Output/pjrcUSB/arm/usb_keyboard.c.o
 .debug_info    0x000000000000b716      0x23b CMakeFiles/kiibohd.elf.dir/Output/pjrcUSB/arm/usb_mem.c.o
 .debug_info    0x000000000000b951      0x50a CMakeFiles/kiibohd.elf.dir/Output/pjrcUSB/arm/usb_mouse.c.o
 .debug_info    0x000000000000be5b      0x61f CMakeFiles/kiibohd.elf.dir/Output/pjrcUSB/arm/usb_serial.c.o
 .debug_info    0x000000000000c47a     0x106a CMakeFiles/kiibohd.elf.dir/Debug/cli/cli.c.o
 .debug_info    0x000000000000d4e4       0xce CMakeFiles/kiibohd.elf.dir/Debug/led/led.c.o
 .debug_info    0x000000000000d5b2      0x7be CMakeFiles/kiibohd.elf.dir/Debug/print/print.c.o

.debug_abbrev   0x0000000000000000     0x299c
 .debug_abbrev  0x0000000000000000      0x107 CMakeFiles/kiibohd.elf.dir/main.c.o
 .debug_abbrev  0x0000000000000107      0x20f CMakeFiles/kiibohd.elf.dir/Lib/mk20dx.c.o
 .debug_abbrev  0x0000000000000316       0xd6 CMakeFiles/kiibohd.elf.dir/Lib/delay.c.o
 .debug_abbrev  0x00000000000003ec      0x3d3 CMakeFiles/kiibohd.elf.dir/Scan/ISSILed/led_scan.c.o
 .debug_abbrev  0x00000000000007bf      0x2b9 CMakeFiles/kiibohd.elf.dir/Scan/MatrixARM/matrix_scan.c.o
 .debug_abbrev  0x0000000000000a78      0x184 CMakeFiles/kiibohd.elf.dir/Scan/WhiteFox/scan_loop.c.o
 .debug_abbrev  0x0000000000000bfc      0x3da CMakeFiles/kiibohd.elf.dir/Macro/PartialMap/macro.c.o
 .debug_abbrev  0x0000000000000fd6      0x1ee CMakeFiles/kiibohd.elf.dir/Macro/PartialMap/result.c.o
 .debug_abbrev  0x00000000000011c4      0x2b6 CMakeFiles/kiibohd.elf.dir/Macro/PartialMap/trigger.c.o
 .debug_abbrev  0x000000000000147a      0x345 CMakeFiles/kiibohd.elf.dir/Output/pjrcUSB/output_com.c.o
 .debug_abbrev  0x00000000000017bf       0xd1 CMakeFiles/kiibohd.elf.dir/Output/pjrcUSB/arm/usb_desc.c.o
 .debug_abbrev  0x0000000000001890      0x3e8 CMakeFiles/kiibohd.elf.dir/Output/pjrcUSB/arm/usb_dev.c.o
 .debug_abbrev  0x0000000000001c78      0x1b7 CMakeFiles/kiibohd.elf.dir/Output/pjrcUSB/arm/usb_keyboard.c.o
 .debug_abbrev  0x0000000000001e2f      0x163 CMakeFiles/kiibohd.elf.dir/Output/pjrcUSB/arm/usb_mem.c.o
 .debug_abbrev  0x0000000000001f92      0x1fc CMakeFiles/kiibohd.elf.dir/Output/pjrcUSB/arm/usb_mouse.c.o
 .debug_abbrev  0x000000000000218e      0x279 CMakeFiles/kiibohd.elf.dir/Output/pjrcUSB/arm/usb_serial.c.o
 .debug_abbrev  0x0000000000002407      0x331 CMakeFiles/kiibohd.elf.dir/Debug/cli/cli.c.o
 .debug_abbrev  0x0000000000002738       0x77 CMakeFiles/kiibohd.elf.dir/Debug/led/led.c.o
 .debug_abbrev  0x00000000000027af      0x1ed CMakeFiles/kiibohd.elf.dir/Debug/print/print.c.o

.debug_aranges  0x0000000000000000      0x790
 .debug_aranges
                0x0000000000000000       0x20 CMakeFiles/kiibohd.elf.dir/main.c.o
 .debug_aranges
                0x0000000000000020       0x88 CMakeFiles/kiibohd.elf.dir/Lib/mk20dx.c.o
 .debug_aranges
                0x00000000000000a8       0x30 CMakeFiles/kiibohd.elf.dir/Lib/delay.c.o
 .debug_aranges
                0x00000000000000d8       0xc8 CMakeFiles/kiibohd.elf.dir/Scan/ISSILed/led_scan.c.o
 .debug_aranges
                0x00000000000001a0       0x58 CMakeFiles/kiibohd.elf.dir/Scan/MatrixARM/matrix_scan.c.o
 .debug_aranges
                0x00000000000001f8       0x40 CMakeFiles/kiibohd.elf.dir/Scan/WhiteFox/scan_loop.c.o
 .debug_aranges
                0x0000000000000238      0x100 CMakeFiles/kiibohd.elf.dir/Macro/PartialMap/macro.c.o
 .debug_aranges
                0x0000000000000338       0x38 CMakeFiles/kiibohd.elf.dir/Macro/PartialMap/result.c.o
 .debug_aranges
                0x0000000000000370       0x40 CMakeFiles/kiibohd.elf.dir/Macro/PartialMap/trigger.c.o
 .debug_aranges
                0x00000000000003b0       0xf8 CMakeFiles/kiibohd.elf.dir/Output/pjrcUSB/output_com.c.o
 .debug_aranges
                0x00000000000004a8       0x20 CMakeFiles/kiibohd.elf.dir/Output/pjrcUSB/arm/usb_desc.c.o
 .debug_aranges
                0x00000000000004c8       0x80 CMakeFiles/kiibohd.elf.dir/Output/pjrcUSB/arm/usb_dev.c.o
 .debug_aranges
                0x0000000000000548       0x20 CMakeFiles/kiibohd.elf.dir/Output/pjrcUSB/arm/usb_keyboard.c.o
 .debug_aranges
                0x0000000000000568       0x28 CMakeFiles/kiibohd.elf.dir/Output/pjrcUSB/arm/usb_mem.c.o
 .debug_aranges
                0x0000000000000590       0x38 CMakeFiles/kiibohd.elf.dir/Output/pjrcUSB/arm/usb_mouse.c.o
 .debug_aranges
                0x00000000000005c8       0x60 CMakeFiles/kiibohd.elf.dir/Output/pjrcUSB/arm/usb_serial.c.o
 .debug_aranges
                0x0000000000000628       0xa0 CMakeFiles/kiibohd.elf.dir/Debug/cli/cli.c.o
 .debug_aranges
                0x00000000000006c8       0x28 CMakeFiles/kiibohd.elf.dir/Debug/led/led.c.o
 .debug_aranges
                0x00000000000006f0       0xa0 CMakeFiles/kiibohd.elf.dir/Debug/print/print.c.o

.debug_ranges   0x0000000000000000      0x988
 .debug_ranges  0x0000000000000000       0x10 CMakeFiles/kiibohd.elf.dir/main.c.o
 .debug_ranges  0x0000000000000010       0x78 CMakeFiles/kiibohd.elf.dir/Lib/mk20dx.c.o
 .debug_ranges  0x0000000000000088       0x20 CMakeFiles/kiibohd.elf.dir/Lib/delay.c.o
 .debug_ranges  0x00000000000000a8       0xe8 CMakeFiles/kiibohd.elf.dir/Scan/ISSILed/led_scan.c.o
 .debug_ranges  0x0000000000000190       0x48 CMakeFiles/kiibohd.elf.dir/Scan/MatrixARM/matrix_scan.c.o
 .debug_ranges  0x00000000000001d8       0x30 CMakeFiles/kiibohd.elf.dir/Scan/WhiteFox/scan_loop.c.o
 .debug_ranges  0x0000000000000208      0x208 CMakeFiles/kiibohd.elf.dir/Macro/PartialMap/macro.c.o
 .debug_ranges  0x0000000000000410       0x40 CMakeFiles/kiibohd.elf.dir/Macro/PartialMap/result.c.o
 .debug_ranges  0x0000000000000450       0xe0 CMakeFiles/kiibohd.elf.dir/Macro/PartialMap/trigger.c.o
 .debug_ranges  0x0000000000000530      0x118 CMakeFiles/kiibohd.elf.dir/Output/pjrcUSB/output_com.c.o
 .debug_ranges  0x0000000000000648       0x10 CMakeFiles/kiibohd.elf.dir/Output/pjrcUSB/arm/usb_desc.c.o
 .debug_ranges  0x0000000000000658       0x88 CMakeFiles/kiibohd.elf.dir/Output/pjrcUSB/arm/usb_dev.c.o
 .debug_ranges  0x00000000000006e0       0x10 CMakeFiles/kiibohd.elf.dir/Output/pjrcUSB/arm/usb_keyboard.c.o
 .debug_ranges  0x00000000000006f0       0x18 CMakeFiles/kiibohd.elf.dir/Output/pjrcUSB/arm/usb_mem.c.o
 .debug_ranges  0x0000000000000708       0x28 CMakeFiles/kiibohd.elf.dir/Output/pjrcUSB/arm/usb_mouse.c.o
 .debug_ranges  0x0000000000000730       0x68 CMakeFiles/kiibohd.elf.dir/Output/pjrcUSB/arm/usb_serial.c.o
 .debug_ranges  0x0000000000000798      0x108 CMakeFiles/kiibohd.elf.dir/Debug/cli/cli.c.o
 .debug_ranges  0x00000000000008a0       0x18 CMakeFiles/kiibohd.elf.dir/Debug/led/led.c.o
 .debug_ranges  0x00000000000008b8       0xd0 CMakeFiles/kiibohd.elf.dir/Debug/print/print.c.o

.debug_macro    0x0000000000000000     0xa1d4
 .debug_macro   0x0000000000000000       0x9f CMakeFiles/kiibohd.elf.dir/main.c.o
 .debug_macro   0x000000000000009f      0x886 CMakeFiles/kiibohd.elf.dir/main.c.o
 .debug_macro   0x0000000000000925       0x16 CMakeFiles/kiibohd.elf.dir/main.c.o
 .debug_macro   0x000000000000093b       0x22 CMakeFiles/kiibohd.elf.dir/main.c.o
 .debug_macro   0x000000000000095d       0x44 CMakeFiles/kiibohd.elf.dir/main.c.o
 .debug_macro   0x00000000000009a1       0xe3 CMakeFiles/kiibohd.elf.dir/main.c.o
 .debug_macro   0x0000000000000a84       0x22 CMakeFiles/kiibohd.elf.dir/main.c.o
 .debug_macro   0x0000000000000aa6      0x1df CMakeFiles/kiibohd.elf.dir/main.c.o
 .debug_macro   0x0000000000000c85     0x301e CMakeFiles/kiibohd.elf.dir/main.c.o
 .debug_macro   0x0000000000003ca3       0x10 CMakeFiles/kiibohd.elf.dir/main.c.o
 .debug_macro   0x0000000000003cb3       0x7c CMakeFiles/kiibohd.elf.dir/main.c.o
 .debug_macro   0x0000000000003d2f       0x10 CMakeFiles/kiibohd.elf.dir/main.c.o
 .debug_macro   0x0000000000003d3f       0x3a CMakeFiles/kiibohd.elf.dir/main.c.o
 .debug_macro   0x0000000000003d79       0x9a CMakeFiles/kiibohd.elf.dir/main.c.o
 .debug_macro   0x0000000000003e13       0x78 CMakeFiles/kiibohd.elf.dir/Lib/mk20dx.c.o
 .debug_macro   0x0000000000003e8b     0x3030 CMakeFiles/kiibohd.elf.dir/Lib/mk20dx.c.o
 .debug_macro   0x0000000000006ebb       0x66 CMakeFiles/kiibohd.elf.dir/Lib/delay.c.o
 .debug_macro   0x0000000000006f21       0x10 CMakeFiles/kiibohd.elf.dir/Lib/delay.c.o
 .debug_macro   0x0000000000006f31       0xf1 CMakeFiles/kiibohd.elf.dir/Scan/ISSILed/led_scan.c.o
 .debug_macro   0x0000000000007022       0x7c CMakeFiles/kiibohd.elf.dir/Scan/ISSILed/led_scan.c.o
 .debug_macro   0x000000000000709e       0xa2 CMakeFiles/kiibohd.elf.dir/Scan/ISSILed/led_scan.c.o
 .debug_macro   0x0000000000007140     0x1217 CMakeFiles/kiibohd.elf.dir/Scan/ISSILed/led_scan.c.o
 .debug_macro   0x0000000000008357       0x57 CMakeFiles/kiibohd.elf.dir/Scan/ISSILed/led_scan.c.o
 .debug_macro   0x00000000000083ae       0xc8 CMakeFiles/kiibohd.elf.dir/Scan/MatrixARM/matrix_scan.c.o
 .debug_macro   0x0000000000008476       0x1c CMakeFiles/kiibohd.elf.dir/Scan/MatrixARM/matrix_scan.c.o
 .debug_macro   0x0000000000008492       0xc3 CMakeFiles/kiibohd.elf.dir/Scan/WhiteFox/scan_loop.c.o
 .debug_macro   0x0000000000008555       0xa2 CMakeFiles/kiibohd.elf.dir/Scan/WhiteFox/scan_loop.c.o
 .debug_macro   0x00000000000085f7       0xda CMakeFiles/kiibohd.elf.dir/Macro/PartialMap/macro.c.o
 .debug_macro   0x00000000000086d1       0xbe CMakeFiles/kiibohd.elf.dir/Macro/PartialMap/result.c.o
 .debug_macro   0x000000000000878f       0xbe CMakeFiles/kiibohd.elf.dir/Macro/PartialMap/trigger.c.o
 .debug_macro   0x000000000000884d      0x13e CMakeFiles/kiibohd.elf.dir/Output/pjrcUSB/output_com.c.o
 .debug_macro   0x000000000000898b      0x16d CMakeFiles/kiibohd.elf.dir/Output/pjrcUSB/output_com.c.o
 .debug_macro   0x0000000000008af8      0x202 CMakeFiles/kiibohd.elf.dir/Output/pjrcUSB/output_com.c.o
 .debug_macro   0x0000000000008cfa       0x58 CMakeFiles/kiibohd.elf.dir/Output/pjrcUSB/output_com.c.o
 .debug_macro   0x0000000000008d52       0x35 CMakeFiles/kiibohd.elf.dir/Output/pjrcUSB/output_com.c.o
 .debug_macro   0x0000000000008d87       0x35 CMakeFiles/kiibohd.elf.dir/Output/pjrcUSB/output_com.c.o
 .debug_macro   0x0000000000008dbc      0x45d CMakeFiles/kiibohd.elf.dir/Output/pjrcUSB/output_com.c.o
 .debug_macro   0x0000000000009219       0x22 CMakeFiles/kiibohd.elf.dir/Output/pjrcUSB/output_com.c.o
 .debug_macro   0x000000000000923b       0xef CMakeFiles/kiibohd.elf.dir/Output/pjrcUSB/arm/usb_desc.c.o
 .debug_macro   0x000000000000932a      0x1da CMakeFiles/kiibohd.elf.dir/Output/pjrcUSB/arm/usb_dev.c.o
 .debug_macro   0x0000000000009504      0x17d CMakeFiles/kiibohd.elf.dir/Output/pjrcUSB/arm/usb_keyboard.c.o
 .debug_macro   0x0000000000009681       0x9c CMakeFiles/kiibohd.elf.dir/Output/pjrcUSB/arm/usb_keyboard.c.o
 .debug_macro   0x000000000000971d       0x4a CMakeFiles/kiibohd.elf.dir/Output/pjrcUSB/arm/usb_keyboard.c.o
 .debug_macro   0x0000000000009767       0x52 CMakeFiles/kiibohd.elf.dir/Output/pjrcUSB/arm/usb_keyboard.c.o
 .debug_macro   0x00000000000097b9       0x16 CMakeFiles/kiibohd.elf.dir/Output/pjrcUSB/arm/usb_keyboard.c.o
 .debug_macro   0x00000000000097cf       0x43 CMakeFiles/kiibohd.elf.dir/Output/pjrcUSB/arm/usb_keyboard.c.o
 .debug_macro   0x0000000000009812      0x180 CMakeFiles/kiibohd.elf.dir/Output/pjrcUSB/arm/usb_keyboard.c.o
 .debug_macro   0x0000000000009992      0x27a CMakeFiles/kiibohd.elf.dir/Output/pjrcUSB/arm/usb_keyboard.c.o
 .debug_macro   0x0000000000009c0c       0x10 CMakeFiles/kiibohd.elf.dir/Output/pjrcUSB/arm/usb_keyboard.c.o
 .debug_macro   0x0000000000009c1c       0x10 CMakeFiles/kiibohd.elf.dir/Output/pjrcUSB/arm/usb_keyboard.c.o
 .debug_macro   0x0000000000009c2c       0x10 CMakeFiles/kiibohd.elf.dir/Output/pjrcUSB/arm/usb_keyboard.c.o
 .debug_macro   0x0000000000009c3c       0xa1 CMakeFiles/kiibohd.elf.dir/Output/pjrcUSB/arm/usb_mem.c.o
 .debug_macro   0x0000000000009cdd      0x195 CMakeFiles/kiibohd.elf.dir/Output/pjrcUSB/arm/usb_mouse.c.o
 .debug_macro   0x0000000000009e72      0x17f CMakeFiles/kiibohd.elf.dir/Output/pjrcUSB/arm/usb_serial.c.o
 .debug_macro   0x0000000000009ff1       0xa0 CMakeFiles/kiibohd.elf.dir/Debug/cli/cli.c.o
 .debug_macro   0x000000000000a091       0x73 CMakeFiles/kiibohd.elf.dir/Debug/led/led.c.o
 .debug_macro   0x000000000000a104       0x78 CMakeFiles/kiibohd.elf.dir/Debug/print/print.c.o
 .debug_macro   0x000000000000a17c       0x58 CMakeFiles/kiibohd.elf.dir/Debug/print/print.c.o

.debug_line     0x0000000000000000     0x50b1
 .debug_line    0x0000000000000000      0x31b CMakeFiles/kiibohd.elf.dir/main.c.o
 .debug_line    0x000000000000031b      0x3a3 CMakeFiles/kiibohd.elf.dir/Lib/mk20dx.c.o
 .debug_line    0x00000000000006be      0x173 CMakeFiles/kiibohd.elf.dir/Lib/delay.c.o
 .debug_line    0x0000000000000831      0x6ee CMakeFiles/kiibohd.elf.dir/Scan/ISSILed/led_scan.c.o
 .debug_line    0x0000000000000f1f      0x547 CMakeFiles/kiibohd.elf.dir/Scan/MatrixARM/matrix_scan.c.o
 .debug_line    0x0000000000001466      0x3df CMakeFiles/kiibohd.elf.dir/Scan/WhiteFox/scan_loop.c.o
 .debug_line    0x0000000000001845      0x85a CMakeFiles/kiibohd.elf.dir/Macro/PartialMap/macro.c.o
 .debug_line    0x000000000000209f      0x365 CMakeFiles/kiibohd.elf.dir/Macro/PartialMap/result.c.o
 .debug_line    0x0000000000002404      0x462 CMakeFiles/kiibohd.elf.dir/Macro/PartialMap/trigger.c.o
 .debug_line    0x0000000000002866      0x78d CMakeFiles/kiibohd.elf.dir/Output/pjrcUSB/output_com.c.o
 .debug_line    0x0000000000002ff3      0x1e5 CMakeFiles/kiibohd.elf.dir/Output/pjrcUSB/arm/usb_desc.c.o
 .debug_line    0x00000000000031d8      0x61f CMakeFiles/kiibohd.elf.dir/Output/pjrcUSB/arm/usb_dev.c.o
 .debug_line    0x00000000000037f7      0x3bb CMakeFiles/kiibohd.elf.dir/Output/pjrcUSB/arm/usb_keyboard.c.o
 .debug_line    0x0000000000003bb2      0x265 CMakeFiles/kiibohd.elf.dir/Output/pjrcUSB/arm/usb_mem.c.o
 .debug_line    0x0000000000003e17      0x410 CMakeFiles/kiibohd.elf.dir/Output/pjrcUSB/arm/usb_mouse.c.o
 .debug_line    0x0000000000004227      0x403 CMakeFiles/kiibohd.elf.dir/Output/pjrcUSB/arm/usb_serial.c.o
 .debug_line    0x000000000000462a      0x4ee CMakeFiles/kiibohd.elf.dir/Debug/cli/cli.c.o
 .debug_line    0x0000000000004b18      0x195 CMakeFiles/kiibohd.elf.dir/Debug/led/led.c.o
 .debug_line    0x0000000000004cad      0x404 CMakeFiles/kiibohd.elf.dir/Debug/print/print.c.o

.debug_str      0x0000000000000000    0x2091a
 .debug_str     0x0000000000000000    0x142bf CMakeFiles/kiibohd.elf.dir/main.c.o
                                      0x1443b (size before relaxing)
 .debug_str     0x00000000000142bf      0x1cf CMakeFiles/kiibohd.elf.dir/Lib/mk20dx.c.o
                                      0x142cc (size before relaxing)
 .debug_str     0x000000000001448e       0x86 CMakeFiles/kiibohd.elf.dir/Lib/delay.c.o
                                      0x1396f (size before relaxing)
 .debug_str     0x0000000000014514     0x4461 CMakeFiles/kiibohd.elf.dir/Scan/ISSILed/led_scan.c.o
                                      0x188c3 (size before relaxing)
 .debug_str     0x0000000000018975      0x56a CMakeFiles/kiibohd.elf.dir/Scan/MatrixARM/matrix_scan.c.o
                                      0x15077 (size before relaxing)
 .debug_str     0x0000000000018edf       0xc3 CMakeFiles/kiibohd.elf.dir/Scan/WhiteFox/scan_loop.c.o
                                      0x14b96 (size before relaxing)
 .debug_str     0x0000000000018fa2     0x1952 CMakeFiles/kiibohd.elf.dir/Macro/PartialMap/macro.c.o
                                      0x19ce8 (size before relaxing)
 .debug_str     0x000000000001a8f4       0xd2 CMakeFiles/kiibohd.elf.dir/Macro/PartialMap/result.c.o
                                      0x181c5 (size before relaxing)
 .debug_str     0x000000000001a9c6      0x2b7 CMakeFiles/kiibohd.elf.dir/Macro/PartialMap/trigger.c.o
                                      0x1849d (size before relaxing)
 .debug_str     0x000000000001ac7d     0x2842 CMakeFiles/kiibohd.elf.dir/Output/pjrcUSB/output_com.c.o
                                      0x1ac8e (size before relaxing)
 .debug_str     0x000000000001d4bf      0x63c CMakeFiles/kiibohd.elf.dir/Output/pjrcUSB/arm/usb_desc.c.o
                                       0x4cdb (size before relaxing)
 .debug_str     0x000000000001dafb      0x5f6 CMakeFiles/kiibohd.elf.dir/Output/pjrcUSB/arm/usb_dev.c.o
                                      0x16ead (size before relaxing)
 .debug_str     0x000000000001e0f1     0x1fea CMakeFiles/kiibohd.elf.dir/Output/pjrcUSB/arm/usb_keyboard.c.o
                                      0x1883c (size before relaxing)
 .debug_str     0x00000000000200db       0x6b CMakeFiles/kiibohd.elf.dir/Output/pjrcUSB/arm/usb_mem.c.o
                                      0x149bd (size before relaxing)
 .debug_str     0x0000000000020146      0x217 CMakeFiles/kiibohd.elf.dir/Output/pjrcUSB/arm/usb_mouse.c.o
                                      0x18920 (size before relaxing)
 .debug_str     0x000000000002035d       0xfd CMakeFiles/kiibohd.elf.dir/Output/pjrcUSB/arm/usb_serial.c.o
                                      0x18394 (size before relaxing)
 .debug_str     0x000000000002045a      0x2a4 CMakeFiles/kiibohd.elf.dir/Debug/cli/cli.c.o
                                      0x14d8b (size before relaxing)
 .debug_str     0x00000000000206fe       0x31 CMakeFiles/kiibohd.elf.dir/Debug/led/led.c.o
                                      0x1393f (size before relaxing)
 .debug_str     0x000000000002072f      0x1eb CMakeFiles/kiibohd.elf.dir/Debug/print/print.c.o
                                       0x3bbf (size before relaxing)

.comment        0x0000000000000000       0x38
 .comment       0x0000000000000000       0x38 CMakeFiles/kiibohd.elf.dir/main.c.o
                                         0x39 (size before relaxing)
 .comment       0x0000000000000038       0x39 CMakeFiles/kiibohd.elf.dir/Lib/mk20dx.c.o
 .comment       0x0000000000000038       0x39 CMakeFiles/kiibohd.elf.dir/Lib/delay.c.o
 .comment       0x0000000000000038       0x39 CMakeFiles/kiibohd.elf.dir/Scan/ISSILed/led_scan.c.o
 .comment       0x0000000000000038       0x39 CMakeFiles/kiibohd.elf.dir/Scan/MatrixARM/matrix_scan.c.o
 .comment       0x0000000000000038       0x39 CMakeFiles/kiibohd.elf.dir/Scan/WhiteFox/scan_loop.c.o
 .comment       0x0000000000000038       0x39 CMakeFiles/kiibohd.elf.dir/Macro/PartialMap/macro.c.o
 .comment       0x0000000000000038       0x39 CMakeFiles/kiibohd.elf.dir/Macro/PartialMap/result.c.o
 .comment       0x0000000000000038       0x39 CMakeFiles/kiibohd.elf.dir/Macro/PartialMap/trigger.c.o
 .comment       0x0000000000000038       0x39 CMakeFiles/kiibohd.elf.dir/Output/pjrcUSB/output_com.c.o
 .comment       0x0000000000000038       0x39 CMakeFiles/kiibohd.elf.dir/Output/pjrcUSB/arm/usb_desc.c.o
 .comment       0x0000000000000038       0x39 CMakeFiles/kiibohd.elf.dir/Output/pjrcUSB/arm/usb_dev.c.o
 .comment       0x0000000000000038       0x39 CMakeFiles/kiibohd.elf.dir/Output/pjrcUSB/arm/usb_keyboard.c.o
 .comment       0x0000000000000038       0x39 CMakeFiles/kiibohd.elf.dir/Output/pjrcUSB/arm/usb_mem.c.o
 .comment       0x0000000000000038       0x39 CMakeFiles/kiibohd.elf.dir/Output/pjrcUSB/arm/usb_mouse.c.o
 .comment       0x0000000000000038       0x39 CMakeFiles/kiibohd.elf.dir/Output/pjrcUSB/arm/usb_serial.c.o
 .comment       0x0000000000000038       0x39 CMakeFiles/kiibohd.elf.dir/Debug/cli/cli.c.o
 .comment       0x0000000000000038       0x39 CMakeFiles/kiibohd.elf.dir/Debug/led/led.c.o
 .comment       0x0000000000000038       0x39 CMakeFiles/kiibohd.elf.dir/Debug/print/print.c.o

.ARM.attributes
                0x0000000000000000       0x33
 .ARM.attributes
                0x0000000000000000       0x33 CMakeFiles/kiibohd.elf.dir/main.c.o
 .ARM.attributes
                0x0000000000000033       0x33 CMakeFiles/kiibohd.elf.dir/Lib/mk20dx.c.o
 .ARM.attributes
                0x0000000000000066       0x33 CMakeFiles/kiibohd.elf.dir/Lib/delay.c.o
 .ARM.attributes
                0x0000000000000099       0x33 CMakeFiles/kiibohd.elf.dir/Scan/ISSILed/led_scan.c.o
 .ARM.attributes
                0x00000000000000cc       0x33 CMakeFiles/kiibohd.elf.dir/Scan/MatrixARM/matrix_scan.c.o
 .ARM.attributes
                0x00000000000000ff       0x33 CMakeFiles/kiibohd.elf.dir/Scan/WhiteFox/scan_loop.c.o
 .ARM.attributes
                0x0000000000000132       0x33 CMakeFiles/kiibohd.elf.dir/Macro/PartialMap/macro.c.o
 .ARM.attributes
                0x0000000000000165       0x33 CMakeFiles/kiibohd.elf.dir/Macro/PartialMap/result.c.o
 .ARM.attributes
                0x0000000000000198       0x33 CMakeFiles/kiibohd.elf.dir/Macro/PartialMap/trigger.c.o
 .ARM.attributes
                0x00000000000001cb       0x33 CMakeFiles/kiibohd.elf.dir/Output/pjrcUSB/output_com.c.o
 .ARM.attributes
                0x00000000000001fe       0x33 CMakeFiles/kiibohd.elf.dir/Output/pjrcUSB/arm/usb_desc.c.o
 .ARM.attributes
                0x0000000000000231       0x33 CMakeFiles/kiibohd.elf.dir/Output/pjrcUSB/arm/usb_dev.c.o
 .ARM.attributes
                0x0000000000000264       0x33 CMakeFiles/kiibohd.elf.dir/Output/pjrcUSB/arm/usb_keyboard.c.o
 .ARM.attributes
                0x0000000000000297       0x33 CMakeFiles/kiibohd.elf.dir/Output/pjrcUSB/arm/usb_mem.c.o
 .ARM.attributes
                0x00000000000002ca       0x33 CMakeFiles/kiibohd.elf.dir/Output/pjrcUSB/arm/usb_mouse.c.o
 .ARM.attributes
                0x00000000000002fd       0x33 CMakeFiles/kiibohd.elf.dir/Output/pjrcUSB/arm/usb_serial.c.o
 .ARM.attributes
                0x0000000000000330       0x33 CMakeFiles/kiibohd.elf.dir/Debug/cli/cli.c.o
 .ARM.attributes
                0x0000000000000363       0x33 CMakeFiles/kiibohd.elf.dir/Debug/led/led.c.o
 .ARM.attributes
                0x0000000000000396       0x33 CMakeFiles/kiibohd.elf.dir/Debug/print/print.c.o

.debug_frame    0x0000000000000000     0x14dc
 .debug_frame   0x0000000000000000       0x28 CMakeFiles/kiibohd.elf.dir/main.c.o
 .debug_frame   0x0000000000000028      0x144 CMakeFiles/kiibohd.elf.dir/Lib/mk20dx.c.o
 .debug_frame   0x000000000000016c       0x4c CMakeFiles/kiibohd.elf.dir/Lib/delay.c.o
 .debug_frame   0x00000000000001b8      0x29c CMakeFiles/kiibohd.elf.dir/Scan/ISSILed/led_scan.c.o
 .debug_frame   0x0000000000000454       0xf8 CMakeFiles/kiibohd.elf.dir/Scan/MatrixARM/matrix_scan.c.o
 .debug_frame   0x000000000000054c       0x7c CMakeFiles/kiibohd.elf.dir/Scan/WhiteFox/scan_loop.c.o
 .debug_frame   0x00000000000005c8      0x388 CMakeFiles/kiibohd.elf.dir/Macro/PartialMap/macro.c.o
 .debug_frame   0x0000000000000950       0x78 CMakeFiles/kiibohd.elf.dir/Macro/PartialMap/result.c.o
 .debug_frame   0x00000000000009c8       0x90 CMakeFiles/kiibohd.elf.dir/Macro/PartialMap/trigger.c.o
 .debug_frame   0x0000000000000a58      0x2ec CMakeFiles/kiibohd.elf.dir/Output/pjrcUSB/output_com.c.o
 .debug_frame   0x0000000000000d44       0x20 CMakeFiles/kiibohd.elf.dir/Output/pjrcUSB/arm/usb_desc.c.o
 .debug_frame   0x0000000000000d64      0x14c CMakeFiles/kiibohd.elf.dir/Output/pjrcUSB/arm/usb_dev.c.o
 .debug_frame   0x0000000000000eb0       0x44 CMakeFiles/kiibohd.elf.dir/Output/pjrcUSB/arm/usb_keyboard.c.o
 .debug_frame   0x0000000000000ef4       0x38 CMakeFiles/kiibohd.elf.dir/Output/pjrcUSB/arm/usb_mem.c.o
 .debug_frame   0x0000000000000f2c       0xa0 CMakeFiles/kiibohd.elf.dir/Output/pjrcUSB/arm/usb_mouse.c.o
 .debug_frame   0x0000000000000fcc      0x10c CMakeFiles/kiibohd.elf.dir/Output/pjrcUSB/arm/usb_serial.c.o
 .debug_frame   0x00000000000010d8      0x1e8 CMakeFiles/kiibohd.elf.dir/Debug/cli/cli.c.o
 .debug_frame   0x00000000000012c0       0x30 CMakeFiles/kiibohd.elf.dir/Debug/led/led.c.o
 .debug_frame   0x00000000000012f0      0x1ec CMakeFiles/kiibohd.elf.dir/Debug/print/print.c.o

.debug_loc      0x0000000000000000     0x5c64
 .debug_loc     0x0000000000000000      0x32f CMakeFiles/kiibohd.elf.dir/Lib/mk20dx.c.o
 .debug_loc     0x000000000000032f       0x6f CMakeFiles/kiibohd.elf.dir/Lib/delay.c.o
 .debug_loc     0x000000000000039e      0x94f CMakeFiles/kiibohd.elf.dir/Scan/ISSILed/led_scan.c.o
 .debug_loc     0x0000000000000ced      0x517 CMakeFiles/kiibohd.elf.dir/Scan/MatrixARM/matrix_scan.c.o
 .debug_loc     0x0000000000001204       0x37 CMakeFiles/kiibohd.elf.dir/Scan/WhiteFox/scan_loop.c.o
 .debug_loc     0x000000000000123b     0x1570 CMakeFiles/kiibohd.elf.dir/Macro/PartialMap/macro.c.o
 .debug_loc     0x00000000000027ab      0x14d CMakeFiles/kiibohd.elf.dir/Macro/PartialMap/result.c.o
 .debug_loc     0x00000000000028f8      0x35b CMakeFiles/kiibohd.elf.dir/Macro/PartialMap/trigger.c.o
 .debug_loc     0x0000000000002c53      0xf69 CMakeFiles/kiibohd.elf.dir/Output/pjrcUSB/output_com.c.o
 .debug_loc     0x0000000000003bbc      0x9ed CMakeFiles/kiibohd.elf.dir/Output/pjrcUSB/arm/usb_dev.c.o
 .debug_loc     0x00000000000045a9      0x296 CMakeFiles/kiibohd.elf.dir/Output/pjrcUSB/arm/usb_keyboard.c.o
 .debug_loc     0x000000000000483f       0xca CMakeFiles/kiibohd.elf.dir/Output/pjrcUSB/arm/usb_mem.c.o
 .debug_loc     0x0000000000004909      0x35d CMakeFiles/kiibohd.elf.dir/Output/pjrcUSB/arm/usb_mouse.c.o
 .debug_loc     0x0000000000004c66      0x2e8 CMakeFiles/kiibohd.elf.dir/Output/pjrcUSB/arm/usb_serial.c.o
 .debug_loc     0x0000000000004f4e      0x5a7 CMakeFiles/kiibohd.elf.dir/Debug/cli/cli.c.o
 .debug_loc     0x00000000000054f5      0x76f CMakeFiles/kiibohd.elf.dir/Debug/print/print.c.o

Cross Reference Table

Symbol                                            File
CLIDict                                           CMakeFiles/kiibohd.elf.dir/Debug/cli/cli.c.o
                                                  CMakeFiles/kiibohd.elf.dir/Output/pjrcUSB/output_com.c.o
                                                  CMakeFiles/kiibohd.elf.dir/Macro/PartialMap/macro.c.o
                                                  CMakeFiles/kiibohd.elf.dir/Scan/WhiteFox/scan_loop.c.o
                                                  CMakeFiles/kiibohd.elf.dir/Scan/MatrixARM/matrix_scan.c.o
                                                  CMakeFiles/kiibohd.elf.dir/Scan/ISSILed/led_scan.c.o
                                                  CMakeFiles/kiibohd.elf.dir/main.c.o
CLIDictNames                                      CMakeFiles/kiibohd.elf.dir/Debug/cli/cli.c.o
                                                  CMakeFiles/kiibohd.elf.dir/Output/pjrcUSB/output_com.c.o
                                                  CMakeFiles/kiibohd.elf.dir/Macro/PartialMap/macro.c.o
                                                  CMakeFiles/kiibohd.elf.dir/Scan/WhiteFox/scan_loop.c.o
                                                  CMakeFiles/kiibohd.elf.dir/Scan/MatrixARM/matrix_scan.c.o
                                                  CMakeFiles/kiibohd.elf.dir/Scan/ISSILed/led_scan.c.o
                                                  CMakeFiles/kiibohd.elf.dir/main.c.o
CLIDictionariesUsed                               CMakeFiles/kiibohd.elf.dir/Debug/cli/cli.c.o
                                                  CMakeFiles/kiibohd.elf.dir/Output/pjrcUSB/output_com.c.o
                                                  CMakeFiles/kiibohd.elf.dir/Macro/PartialMap/macro.c.o
                                                  CMakeFiles/kiibohd.elf.dir/Scan/WhiteFox/scan_loop.c.o
                                                  CMakeFiles/kiibohd.elf.dir/Scan/MatrixARM/matrix_scan.c.o
                                                  CMakeFiles/kiibohd.elf.dir/Scan/ISSILed/led_scan.c.o
                                                  CMakeFiles/kiibohd.elf.dir/main.c.o
CLIHexDebugMode                                   CMakeFiles/kiibohd.elf.dir/Debug/cli/cli.c.o
                                                  CMakeFiles/kiibohd.elf.dir/Output/pjrcUSB/output_com.c.o
                                                  CMakeFiles/kiibohd.elf.dir/Macro/PartialMap/macro.c.o
                                                  CMakeFiles/kiibohd.elf.dir/Scan/WhiteFox/scan_loop.c.o
                                                  CMakeFiles/kiibohd.elf.dir/Scan/MatrixARM/matrix_scan.c.o
                                                  CMakeFiles/kiibohd.elf.dir/Scan/ISSILed/led_scan.c.o
                                                  CMakeFiles/kiibohd.elf.dir/main.c.o
CLIHistoryBuffer                                  CMakeFiles/kiibohd.elf.dir/Debug/cli/cli.c.o
                                                  CMakeFiles/kiibohd.elf.dir/Output/pjrcUSB/output_com.c.o
                                                  CMakeFiles/kiibohd.elf.dir/Macro/PartialMap/macro.c.o
                                                  CMakeFiles/kiibohd.elf.dir/Scan/WhiteFox/scan_loop.c.o
                                                  CMakeFiles/kiibohd.elf.dir/Scan/MatrixARM/matrix_scan.c.o
                                                  CMakeFiles/kiibohd.elf.dir/Scan/ISSILed/led_scan.c.o
                                                  CMakeFiles/kiibohd.elf.dir/main.c.o
CLIHistoryCurrent                                 CMakeFiles/kiibohd.elf.dir/Debug/cli/cli.c.o
                                                  CMakeFiles/kiibohd.elf.dir/Output/pjrcUSB/output_com.c.o
                                                  CMakeFiles/kiibohd.elf.dir/Macro/PartialMap/macro.c.o
                                                  CMakeFiles/kiibohd.elf.dir/Scan/WhiteFox/scan_loop.c.o
                                                  CMakeFiles/kiibohd.elf.dir/Scan/MatrixARM/matrix_scan.c.o
                                                  CMakeFiles/kiibohd.elf.dir/Scan/ISSILed/led_scan.c.o
                                                  CMakeFiles/kiibohd.elf.dir/main.c.o
CLIHistoryHead                                    CMakeFiles/kiibohd.elf.dir/Debug/cli/cli.c.o
                                                  CMakeFiles/kiibohd.elf.dir/Output/pjrcUSB/output_com.c.o
                                                  CMakeFiles/kiibohd.elf.dir/Macro/PartialMap/macro.c.o
                                                  CMakeFiles/kiibohd.elf.dir/Scan/WhiteFox/scan_loop.c.o
                                                  CMakeFiles/kiibohd.elf.dir/Scan/MatrixARM/matrix_scan.c.o
                                                  CMakeFiles/kiibohd.elf.dir/Scan/ISSILed/led_scan.c.o
                                                  CMakeFiles/kiibohd.elf.dir/main.c.o
CLIHistoryTail                                    CMakeFiles/kiibohd.elf.dir/Debug/cli/cli.c.o
                                                  CMakeFiles/kiibohd.elf.dir/Output/pjrcUSB/output_com.c.o
                                                  CMakeFiles/kiibohd.elf.dir/Macro/PartialMap/macro.c.o
                                                  CMakeFiles/kiibohd.elf.dir/Scan/WhiteFox/scan_loop.c.o
                                                  CMakeFiles/kiibohd.elf.dir/Scan/MatrixARM/matrix_scan.c.o
                                                  CMakeFiles/kiibohd.elf.dir/Scan/ISSILed/led_scan.c.o
                                                  CMakeFiles/kiibohd.elf.dir/main.c.o
CLILEDState                                       CMakeFiles/kiibohd.elf.dir/Debug/cli/cli.c.o
                                                  CMakeFiles/kiibohd.elf.dir/Output/pjrcUSB/output_com.c.o
                                                  CMakeFiles/kiibohd.elf.dir/Macro/PartialMap/macro.c.o
                                                  CMakeFiles/kiibohd.elf.dir/Scan/WhiteFox/scan_loop.c.o
                                                  CMakeFiles/kiibohd.elf.dir/Scan/MatrixARM/matrix_scan.c.o
                                                  CMakeFiles/kiibohd.elf.dir/Scan/ISSILed/led_scan.c.o
                                                  CMakeFiles/kiibohd.elf.dir/main.c.o
CLILineBuffer                                     CMakeFiles/kiibohd.elf.dir/Debug/cli/cli.c.o
                                                  CMakeFiles/kiibohd.elf.dir/Output/pjrcUSB/output_com.c.o
                                                  CMakeFiles/kiibohd.elf.dir/Macro/PartialMap/macro.c.o
                                                  CMakeFiles/kiibohd.elf.dir/Scan/WhiteFox/scan_loop.c.o
                                                  CMakeFiles/kiibohd.elf.dir/Scan/MatrixARM/matrix_scan.c.o
                                                  CMakeFiles/kiibohd.elf.dir/Scan/ISSILed/led_scan.c.o
                                                  CMakeFiles/kiibohd.elf.dir/main.c.o
CLILineBufferCurrent                              CMakeFiles/kiibohd.elf.dir/Debug/cli/cli.c.o
                                                  CMakeFiles/kiibohd.elf.dir/Output/pjrcUSB/output_com.c.o
                                                  CMakeFiles/kiibohd.elf.dir/Macro/PartialMap/macro.c.o
                                                  CMakeFiles/kiibohd.elf.dir/Scan/WhiteFox/scan_loop.c.o
                                                  CMakeFiles/kiibohd.elf.dir/Scan/MatrixARM/matrix_scan.c.o
                                                  CMakeFiles/kiibohd.elf.dir/Scan/ISSILed/led_scan.c.o
                                                  CMakeFiles/kiibohd.elf.dir/main.c.o
CLI_argumentIsolation                             CMakeFiles/kiibohd.elf.dir/Debug/cli/cli.c.o
                                                  CMakeFiles/kiibohd.elf.dir/Output/pjrcUSB/output_com.c.o
                                                  CMakeFiles/kiibohd.elf.dir/Macro/PartialMap/macro.c.o
                                                  CMakeFiles/kiibohd.elf.dir/Scan/MatrixARM/matrix_scan.c.o
                                                  CMakeFiles/kiibohd.elf.dir/Scan/ISSILed/led_scan.c.o
CLI_commandLookup                                 CMakeFiles/kiibohd.elf.dir/Debug/cli/cli.c.o
CLI_init                                          CMakeFiles/kiibohd.elf.dir/Debug/cli/cli.c.o
                                                  CMakeFiles/kiibohd.elf.dir/main.c.o
CLI_process                                       CMakeFiles/kiibohd.elf.dir/Debug/cli/cli.c.o
                                                  CMakeFiles/kiibohd.elf.dir/main.c.o
CLI_registerDictionary                            CMakeFiles/kiibohd.elf.dir/Debug/cli/cli.c.o
                                                  CMakeFiles/kiibohd.elf.dir/Output/pjrcUSB/output_com.c.o
                                                  CMakeFiles/kiibohd.elf.dir/Macro/PartialMap/macro.c.o
                                                  CMakeFiles/kiibohd.elf.dir/Scan/MatrixARM/matrix_scan.c.o
                                                  CMakeFiles/kiibohd.elf.dir/Scan/ISSILed/led_scan.c.o
CLI_retreiveHistory                               CMakeFiles/kiibohd.elf.dir/Debug/cli/cli.c.o
CLI_saveHistory                                   CMakeFiles/kiibohd.elf.dir/Debug/cli/cli.c.o
CLI_tabCompletion                                 CMakeFiles/kiibohd.elf.dir/Debug/cli/cli.c.o
CLI_wrap                                          CMakeFiles/kiibohd.elf.dir/Debug/cli/cli.c.o
CapabilitiesList                                  CMakeFiles/kiibohd.elf.dir/Macro/PartialMap/macro.c.o
                                                  CMakeFiles/kiibohd.elf.dir/Macro/PartialMap/trigger.c.o
                                                  CMakeFiles/kiibohd.elf.dir/Macro/PartialMap/result.c.o
I2C_BufferLen                                     CMakeFiles/kiibohd.elf.dir/Scan/ISSILed/led_scan.c.o
I2C_BufferPush                                    CMakeFiles/kiibohd.elf.dir/Scan/ISSILed/led_scan.c.o
I2C_RxBuffer                                      CMakeFiles/kiibohd.elf.dir/Scan/ISSILed/led_scan.c.o
I2C_RxBufferPtr                                   CMakeFiles/kiibohd.elf.dir/Scan/ISSILed/led_scan.c.o
I2C_Send                                          CMakeFiles/kiibohd.elf.dir/Scan/ISSILed/led_scan.c.o
I2C_TxBuffer                                      CMakeFiles/kiibohd.elf.dir/Scan/ISSILed/led_scan.c.o
I2C_TxBufferPop                                   CMakeFiles/kiibohd.elf.dir/Scan/ISSILed/led_scan.c.o
I2C_TxBufferPtr                                   CMakeFiles/kiibohd.elf.dir/Scan/ISSILed/led_scan.c.o
InterconnectOffsetList                            CMakeFiles/kiibohd.elf.dir/Macro/PartialMap/macro.c.o
LED_control                                       CMakeFiles/kiibohd.elf.dir/Scan/ISSILed/led_scan.c.o
LED_control_capability                            CMakeFiles/kiibohd.elf.dir/Scan/ISSILed/led_scan.c.o
                                                  CMakeFiles/kiibohd.elf.dir/Macro/PartialMap/macro.c.o
LED_control_timer                                 CMakeFiles/kiibohd.elf.dir/Scan/ISSILed/led_scan.c.o
LED_currentChange                                 CMakeFiles/kiibohd.elf.dir/Scan/ISSILed/led_scan.c.o
                                                  CMakeFiles/kiibohd.elf.dir/Scan/WhiteFox/scan_loop.c.o
LED_currentEvent                                  CMakeFiles/kiibohd.elf.dir/Scan/ISSILed/led_scan.c.o
LED_defaultBrightness1                            CMakeFiles/kiibohd.elf.dir/Scan/ISSILed/led_scan.c.o
LED_ledEnableMask1                                CMakeFiles/kiibohd.elf.dir/Scan/ISSILed/led_scan.c.o
LED_pageBuffer                                    CMakeFiles/kiibohd.elf.dir/Scan/ISSILed/led_scan.c.o
LED_readPage                                      CMakeFiles/kiibohd.elf.dir/Scan/ISSILed/led_scan.c.o
LED_scan                                          CMakeFiles/kiibohd.elf.dir/Scan/ISSILed/led_scan.c.o
                                                  CMakeFiles/kiibohd.elf.dir/Scan/WhiteFox/scan_loop.c.o
LED_sendPage                                      CMakeFiles/kiibohd.elf.dir/Scan/ISSILed/led_scan.c.o
LED_setup                                         CMakeFiles/kiibohd.elf.dir/Scan/ISSILed/led_scan.c.o
                                                  CMakeFiles/kiibohd.elf.dir/Scan/WhiteFox/scan_loop.c.o
LED_writeReg                                      CMakeFiles/kiibohd.elf.dir/Scan/ISSILed/led_scan.c.o
LED_zeroPages                                     CMakeFiles/kiibohd.elf.dir/Scan/ISSILed/led_scan.c.o
LayerIndex                                        CMakeFiles/kiibohd.elf.dir/Macro/PartialMap/macro.c.o
LayerState                                        CMakeFiles/kiibohd.elf.dir/Macro/PartialMap/macro.c.o
Macro_analogState                                 CMakeFiles/kiibohd.elf.dir/Macro/PartialMap/macro.c.o
Macro_appendResultMacroToPendingList              CMakeFiles/kiibohd.elf.dir/Macro/PartialMap/macro.c.o
                                                  CMakeFiles/kiibohd.elf.dir/Macro/PartialMap/trigger.c.o
Macro_evalResultMacro                             CMakeFiles/kiibohd.elf.dir/Macro/PartialMap/result.c.o
Macro_evalTriggerMacro                            CMakeFiles/kiibohd.elf.dir/Macro/PartialMap/trigger.c.o
Macro_keyState                                    CMakeFiles/kiibohd.elf.dir/Macro/PartialMap/macro.c.o
                                                  CMakeFiles/kiibohd.elf.dir/Scan/MatrixARM/matrix_scan.c.o
Macro_layerLatch_capability                       CMakeFiles/kiibohd.elf.dir/Macro/PartialMap/macro.c.o
Macro_layerLock_capability                        CMakeFiles/kiibohd.elf.dir/Macro/PartialMap/macro.c.o
Macro_layerLookup                                 CMakeFiles/kiibohd.elf.dir/Macro/PartialMap/macro.c.o
                                                  CMakeFiles/kiibohd.elf.dir/Macro/PartialMap/trigger.c.o
Macro_layerRotate_capability                      CMakeFiles/kiibohd.elf.dir/Macro/PartialMap/macro.c.o
Macro_layerShift_capability                       CMakeFiles/kiibohd.elf.dir/Macro/PartialMap/macro.c.o
Macro_layerState                                  CMakeFiles/kiibohd.elf.dir/Macro/PartialMap/macro.c.o
Macro_layerState_capability                       CMakeFiles/kiibohd.elf.dir/Macro/PartialMap/macro.c.o
Macro_ledState                                    CMakeFiles/kiibohd.elf.dir/Macro/PartialMap/macro.c.o
Macro_process                                     CMakeFiles/kiibohd.elf.dir/Macro/PartialMap/macro.c.o
                                                  CMakeFiles/kiibohd.elf.dir/main.c.o
Macro_rotationLayer                               CMakeFiles/kiibohd.elf.dir/Macro/PartialMap/macro.c.o
Macro_setup                                       CMakeFiles/kiibohd.elf.dir/Macro/PartialMap/macro.c.o
                                                  CMakeFiles/kiibohd.elf.dir/main.c.o
Matrix_cols                                       CMakeFiles/kiibohd.elf.dir/Scan/MatrixARM/matrix_scan.c.o
Matrix_currentChange                              CMakeFiles/kiibohd.elf.dir/Scan/MatrixARM/matrix_scan.c.o
                                                  CMakeFiles/kiibohd.elf.dir/Scan/WhiteFox/scan_loop.c.o
Matrix_keyPositionDebug                           CMakeFiles/kiibohd.elf.dir/Scan/MatrixARM/matrix_scan.c.o
Matrix_pin                                        CMakeFiles/kiibohd.elf.dir/Scan/MatrixARM/matrix_scan.c.o
Matrix_rows                                       CMakeFiles/kiibohd.elf.dir/Scan/MatrixARM/matrix_scan.c.o
Matrix_scan                                       CMakeFiles/kiibohd.elf.dir/Scan/MatrixARM/matrix_scan.c.o
                                                  CMakeFiles/kiibohd.elf.dir/Scan/WhiteFox/scan_loop.c.o
Matrix_scanArray                                  CMakeFiles/kiibohd.elf.dir/Scan/MatrixARM/matrix_scan.c.o
Matrix_setup                                      CMakeFiles/kiibohd.elf.dir/Scan/MatrixARM/matrix_scan.c.o
                                                  CMakeFiles/kiibohd.elf.dir/Scan/WhiteFox/scan_loop.c.o
Matrix_type                                       CMakeFiles/kiibohd.elf.dir/Scan/MatrixARM/matrix_scan.c.o
Output_Available                                  CMakeFiles/kiibohd.elf.dir/Output/pjrcUSB/output_com.c.o
                                                  CMakeFiles/kiibohd.elf.dir/Output/pjrcUSB/arm/usb_dev.c.o
Output_DebugMode                                  CMakeFiles/kiibohd.elf.dir/Output/pjrcUSB/output_com.c.o
                                                  CMakeFiles/kiibohd.elf.dir/Output/pjrcUSB/arm/usb_keyboard.c.o
Output_ExtCurrent_Available                       CMakeFiles/kiibohd.elf.dir/Output/pjrcUSB/output_com.c.o
Output_USBCurrent_Available                       CMakeFiles/kiibohd.elf.dir/Output/pjrcUSB/output_com.c.o
Output_availablechar                              CMakeFiles/kiibohd.elf.dir/Output/pjrcUSB/output_com.c.o
                                                  CMakeFiles/kiibohd.elf.dir/Debug/cli/cli.c.o
Output_consCtrlSend_capability                    CMakeFiles/kiibohd.elf.dir/Output/pjrcUSB/output_com.c.o
                                                  CMakeFiles/kiibohd.elf.dir/Macro/PartialMap/macro.c.o
Output_current_available                          CMakeFiles/kiibohd.elf.dir/Output/pjrcUSB/output_com.c.o
                                                  CMakeFiles/kiibohd.elf.dir/Scan/ISSILed/led_scan.c.o
Output_firmwareReload                             CMakeFiles/kiibohd.elf.dir/Output/pjrcUSB/output_com.c.o
Output_flashMode_capability                       CMakeFiles/kiibohd.elf.dir/Output/pjrcUSB/output_com.c.o
                                                  CMakeFiles/kiibohd.elf.dir/Macro/PartialMap/macro.c.o
Output_flushBuffers                               CMakeFiles/kiibohd.elf.dir/Output/pjrcUSB/output_com.c.o
Output_getchar                                    CMakeFiles/kiibohd.elf.dir/Output/pjrcUSB/output_com.c.o
                                                  CMakeFiles/kiibohd.elf.dir/Debug/cli/cli.c.o
Output_kbdProtocolBoot_capability                 CMakeFiles/kiibohd.elf.dir/Output/pjrcUSB/output_com.c.o
                                                  CMakeFiles/kiibohd.elf.dir/Macro/PartialMap/macro.c.o
Output_kbdProtocolNKRO_capability                 CMakeFiles/kiibohd.elf.dir/Output/pjrcUSB/output_com.c.o
                                                  CMakeFiles/kiibohd.elf.dir/Macro/PartialMap/macro.c.o
Output_noneSend_capability                        CMakeFiles/kiibohd.elf.dir/Output/pjrcUSB/output_com.c.o
                                                  CMakeFiles/kiibohd.elf.dir/Macro/PartialMap/macro.c.o
Output_putchar                                    CMakeFiles/kiibohd.elf.dir/Output/pjrcUSB/output_com.c.o
Output_putstr                                     CMakeFiles/kiibohd.elf.dir/Output/pjrcUSB/output_com.c.o
                                                  CMakeFiles/kiibohd.elf.dir/Debug/print/print.c.o
                                                  CMakeFiles/kiibohd.elf.dir/Debug/cli/cli.c.o
                                                  CMakeFiles/kiibohd.elf.dir/Macro/PartialMap/macro.c.o
                                                  CMakeFiles/kiibohd.elf.dir/Scan/ISSILed/led_scan.c.o
Output_send                                       CMakeFiles/kiibohd.elf.dir/Output/pjrcUSB/output_com.c.o
                                                  CMakeFiles/kiibohd.elf.dir/main.c.o
Output_setup                                      CMakeFiles/kiibohd.elf.dir/Output/pjrcUSB/output_com.c.o
                                                  CMakeFiles/kiibohd.elf.dir/main.c.o
Output_softReset                                  CMakeFiles/kiibohd.elf.dir/Output/pjrcUSB/output_com.c.o
                                                  CMakeFiles/kiibohd.elf.dir/Debug/cli/cli.c.o
Output_sysCtrlSend_capability                     CMakeFiles/kiibohd.elf.dir/Output/pjrcUSB/output_com.c.o
                                                  CMakeFiles/kiibohd.elf.dir/Macro/PartialMap/macro.c.o
Output_toggleKbdProtocol_capability               CMakeFiles/kiibohd.elf.dir/Output/pjrcUSB/output_com.c.o
                                                  CMakeFiles/kiibohd.elf.dir/Macro/PartialMap/macro.c.o
Output_update_external_current                    CMakeFiles/kiibohd.elf.dir/Output/pjrcUSB/output_com.c.o
Output_update_usb_current                         CMakeFiles/kiibohd.elf.dir/Output/pjrcUSB/output_com.c.o
                                                  CMakeFiles/kiibohd.elf.dir/Output/pjrcUSB/arm/usb_dev.c.o
Output_usbCodeSend_capability                     CMakeFiles/kiibohd.elf.dir/Output/pjrcUSB/output_com.c.o
                                                  CMakeFiles/kiibohd.elf.dir/Macro/PartialMap/macro.c.o
Output_usbMouse_capability                        CMakeFiles/kiibohd.elf.dir/Output/pjrcUSB/output_com.c.o
                                                  CMakeFiles/kiibohd.elf.dir/Macro/PartialMap/macro.c.o
ResetHandler                                      CMakeFiles/kiibohd.elf.dir/Lib/mk20dx.c.o
ResultMacroList                                   CMakeFiles/kiibohd.elf.dir/Macro/PartialMap/macro.c.o
                                                  CMakeFiles/kiibohd.elf.dir/Macro/PartialMap/trigger.c.o
                                                  CMakeFiles/kiibohd.elf.dir/Macro/PartialMap/result.c.o
ResultMacroRecordList                             CMakeFiles/kiibohd.elf.dir/Macro/PartialMap/macro.c.o
                                                  CMakeFiles/kiibohd.elf.dir/Macro/PartialMap/result.c.o
Result_add                                        CMakeFiles/kiibohd.elf.dir/Macro/PartialMap/result.c.o
Result_process                                    CMakeFiles/kiibohd.elf.dir/Macro/PartialMap/result.c.o
                                                  CMakeFiles/kiibohd.elf.dir/Macro/PartialMap/macro.c.o
Result_setup                                      CMakeFiles/kiibohd.elf.dir/Macro/PartialMap/result.c.o
                                                  CMakeFiles/kiibohd.elf.dir/Macro/PartialMap/macro.c.o
Scan_currentChange                                CMakeFiles/kiibohd.elf.dir/Scan/WhiteFox/scan_loop.c.o
                                                  CMakeFiles/kiibohd.elf.dir/Output/pjrcUSB/output_com.c.o
Scan_finishedWithMacro                            CMakeFiles/kiibohd.elf.dir/Scan/WhiteFox/scan_loop.c.o
                                                  CMakeFiles/kiibohd.elf.dir/Macro/PartialMap/macro.c.o
Scan_finishedWithOutput                           CMakeFiles/kiibohd.elf.dir/Scan/WhiteFox/scan_loop.c.o
                                                  CMakeFiles/kiibohd.elf.dir/Output/pjrcUSB/output_com.c.o
Scan_loop                                         CMakeFiles/kiibohd.elf.dir/Scan/WhiteFox/scan_loop.c.o
                                                  CMakeFiles/kiibohd.elf.dir/main.c.o
Scan_scanCount                                    CMakeFiles/kiibohd.elf.dir/Scan/WhiteFox/scan_loop.c.o
Scan_setup                                        CMakeFiles/kiibohd.elf.dir/Scan/WhiteFox/scan_loop.c.o
                                                  CMakeFiles/kiibohd.elf.dir/main.c.o
TriggerMacroList                                  CMakeFiles/kiibohd.elf.dir/Macro/PartialMap/macro.c.o
                                                  CMakeFiles/kiibohd.elf.dir/Macro/PartialMap/trigger.c.o
TriggerMacroRecordList                            CMakeFiles/kiibohd.elf.dir/Macro/PartialMap/macro.c.o
                                                  CMakeFiles/kiibohd.elf.dir/Macro/PartialMap/trigger.c.o
Trigger_process                                   CMakeFiles/kiibohd.elf.dir/Macro/PartialMap/trigger.c.o
                                                  CMakeFiles/kiibohd.elf.dir/Macro/PartialMap/macro.c.o
Trigger_setup                                     CMakeFiles/kiibohd.elf.dir/Macro/PartialMap/trigger.c.o
                                                  CMakeFiles/kiibohd.elf.dir/Macro/PartialMap/macro.c.o
Trigger_state                                     CMakeFiles/kiibohd.elf.dir/Macro/PartialMap/trigger.c.o
Trigger_update                                    CMakeFiles/kiibohd.elf.dir/Macro/PartialMap/trigger.c.o
USBInit_Ticks                                     CMakeFiles/kiibohd.elf.dir/Output/pjrcUSB/output_com.c.o
                                                  CMakeFiles/kiibohd.elf.dir/Output/pjrcUSB/arm/usb_dev.c.o
USBInit_TimeEnd                                   CMakeFiles/kiibohd.elf.dir/Output/pjrcUSB/output_com.c.o
                                                  CMakeFiles/kiibohd.elf.dir/Output/pjrcUSB/arm/usb_dev.c.o
USBInit_TimeStart                                 CMakeFiles/kiibohd.elf.dir/Output/pjrcUSB/output_com.c.o
                                                  CMakeFiles/kiibohd.elf.dir/Output/pjrcUSB/arm/usb_dev.c.o
USBKeys_Changed                                   CMakeFiles/kiibohd.elf.dir/Output/pjrcUSB/output_com.c.o
                                                  CMakeFiles/kiibohd.elf.dir/Output/pjrcUSB/arm/usb_keyboard.c.o
USBKeys_ConsCtrl                                  CMakeFiles/kiibohd.elf.dir/Output/pjrcUSB/output_com.c.o
                                                  CMakeFiles/kiibohd.elf.dir/Output/pjrcUSB/arm/usb_keyboard.c.o
USBKeys_Idle_Config                               CMakeFiles/kiibohd.elf.dir/Output/pjrcUSB/output_com.c.o
                                                  CMakeFiles/kiibohd.elf.dir/Output/pjrcUSB/arm/usb_dev.c.o
USBKeys_Idle_Count                                CMakeFiles/kiibohd.elf.dir/Output/pjrcUSB/output_com.c.o
USBKeys_Idle_Expiry                               CMakeFiles/kiibohd.elf.dir/Output/pjrcUSB/output_com.c.o
                                                  CMakeFiles/kiibohd.elf.dir/Output/pjrcUSB/arm/usb_dev.c.o
USBKeys_Keys                                      CMakeFiles/kiibohd.elf.dir/Output/pjrcUSB/output_com.c.o
                                                  CMakeFiles/kiibohd.elf.dir/Output/pjrcUSB/arm/usb_keyboard.c.o
USBKeys_KeysCLI                                   CMakeFiles/kiibohd.elf.dir/Output/pjrcUSB/output_com.c.o
USBKeys_LEDs                                      CMakeFiles/kiibohd.elf.dir/Output/pjrcUSB/output_com.c.o
                                                  CMakeFiles/kiibohd.elf.dir/Output/pjrcUSB/arm/usb_dev.c.o
USBKeys_Modifiers                                 CMakeFiles/kiibohd.elf.dir/Output/pjrcUSB/output_com.c.o
                                                  CMakeFiles/kiibohd.elf.dir/Output/pjrcUSB/arm/usb_keyboard.c.o
                                                  CMakeFiles/kiibohd.elf.dir/Macro/PartialMap/macro.c.o
USBKeys_ModifiersCLI                              CMakeFiles/kiibohd.elf.dir/Output/pjrcUSB/output_com.c.o
USBKeys_Protocol                                  CMakeFiles/kiibohd.elf.dir/Output/pjrcUSB/output_com.c.o
                                                  CMakeFiles/kiibohd.elf.dir/Output/pjrcUSB/arm/usb_keyboard.c.o
                                                  CMakeFiles/kiibohd.elf.dir/Output/pjrcUSB/arm/usb_dev.c.o
USBKeys_Sent                                      CMakeFiles/kiibohd.elf.dir/Output/pjrcUSB/output_com.c.o
                                                  CMakeFiles/kiibohd.elf.dir/Macro/PartialMap/macro.c.o
USBKeys_SentCLI                                   CMakeFiles/kiibohd.elf.dir/Output/pjrcUSB/output_com.c.o
USBKeys_SysCtrl                                   CMakeFiles/kiibohd.elf.dir/Output/pjrcUSB/output_com.c.o
                                                  CMakeFiles/kiibohd.elf.dir/Output/pjrcUSB/arm/usb_keyboard.c.o
USBMouse_Buttons                                  CMakeFiles/kiibohd.elf.dir/Output/pjrcUSB/output_com.c.o
                                                  CMakeFiles/kiibohd.elf.dir/Output/pjrcUSB/arm/usb_mouse.c.o
USBMouse_Changed                                  CMakeFiles/kiibohd.elf.dir/Output/pjrcUSB/output_com.c.o
                                                  CMakeFiles/kiibohd.elf.dir/Output/pjrcUSB/arm/usb_mouse.c.o
USBMouse_Relative_x                               CMakeFiles/kiibohd.elf.dir/Output/pjrcUSB/output_com.c.o
                                                  CMakeFiles/kiibohd.elf.dir/Output/pjrcUSB/arm/usb_mouse.c.o
USBMouse_Relative_y                               CMakeFiles/kiibohd.elf.dir/Output/pjrcUSB/output_com.c.o
                                                  CMakeFiles/kiibohd.elf.dir/Output/pjrcUSB/arm/usb_mouse.c.o
__brkval                                          CMakeFiles/kiibohd.elf.dir/Lib/mk20dx.c.o
_ebss                                             CMakeFiles/kiibohd.elf.dir/Lib/mk20dx.c.o
_edata                                            CMakeFiles/kiibohd.elf.dir/Lib/mk20dx.c.o
_estack                                           CMakeFiles/kiibohd.elf.dir/Lib/mk20dx.c.o
_etext                                            CMakeFiles/kiibohd.elf.dir/Lib/mk20dx.c.o
_print                                            CMakeFiles/kiibohd.elf.dir/Debug/print/print.c.o
                                                  CMakeFiles/kiibohd.elf.dir/Debug/cli/cli.c.o
                                                  CMakeFiles/kiibohd.elf.dir/Output/pjrcUSB/arm/usb_mouse.c.o
                                                  CMakeFiles/kiibohd.elf.dir/Output/pjrcUSB/arm/usb_keyboard.c.o
                                                  CMakeFiles/kiibohd.elf.dir/Output/pjrcUSB/arm/usb_dev.c.o
                                                  CMakeFiles/kiibohd.elf.dir/Output/pjrcUSB/output_com.c.o
                                                  CMakeFiles/kiibohd.elf.dir/Macro/PartialMap/trigger.c.o
                                                  CMakeFiles/kiibohd.elf.dir/Macro/PartialMap/macro.c.o
                                                  CMakeFiles/kiibohd.elf.dir/Scan/MatrixARM/matrix_scan.c.o
                                                  CMakeFiles/kiibohd.elf.dir/Scan/ISSILed/led_scan.c.o
                                                  CMakeFiles/kiibohd.elf.dir/Lib/mk20dx.c.o
_sbrk                                             CMakeFiles/kiibohd.elf.dir/Lib/mk20dx.c.o
_sbss                                             CMakeFiles/kiibohd.elf.dir/Lib/mk20dx.c.o
_sdata                                            CMakeFiles/kiibohd.elf.dir/Lib/mk20dx.c.o
adc0_isr                                          CMakeFiles/kiibohd.elf.dir/Lib/mk20dx.c.o
adc1_isr                                          CMakeFiles/kiibohd.elf.dir/Lib/mk20dx.c.o
basicCLIDict                                      CMakeFiles/kiibohd.elf.dir/Debug/cli/cli.c.o
basicCLIDictName                                  CMakeFiles/kiibohd.elf.dir/Debug/cli/cli.c.o
bus_fault_default_isr                             CMakeFiles/kiibohd.elf.dir/Lib/mk20dx.c.o
bus_fault_isr                                     CMakeFiles/kiibohd.elf.dir/Lib/mk20dx.c.o
can0_bus_off_isr                                  CMakeFiles/kiibohd.elf.dir/Lib/mk20dx.c.o
can0_error_isr                                    CMakeFiles/kiibohd.elf.dir/Lib/mk20dx.c.o
can0_message_isr                                  CMakeFiles/kiibohd.elf.dir/Lib/mk20dx.c.o
can0_rx_warn_isr                                  CMakeFiles/kiibohd.elf.dir/Lib/mk20dx.c.o
can0_tx_warn_isr                                  CMakeFiles/kiibohd.elf.dir/Lib/mk20dx.c.o
can0_wakeup_isr                                   CMakeFiles/kiibohd.elf.dir/Lib/mk20dx.c.o
capListCLIDict_DescEntry                          CMakeFiles/kiibohd.elf.dir/Macro/PartialMap/macro.c.o
capSelectCLIDict_DescEntry                        CMakeFiles/kiibohd.elf.dir/Macro/PartialMap/macro.c.o
clearCLIDict_DescEntry                            CMakeFiles/kiibohd.elf.dir/Debug/cli/cli.c.o
cliDebugCLIDict_DescEntry                         CMakeFiles/kiibohd.elf.dir/Debug/cli/cli.c.o
cliFunc_capList                                   CMakeFiles/kiibohd.elf.dir/Macro/PartialMap/macro.c.o
cliFunc_capSelect                                 CMakeFiles/kiibohd.elf.dir/Macro/PartialMap/macro.c.o
cliFunc_clear                                     CMakeFiles/kiibohd.elf.dir/Debug/cli/cli.c.o
cliFunc_cliDebug                                  CMakeFiles/kiibohd.elf.dir/Debug/cli/cli.c.o
cliFunc_help                                      CMakeFiles/kiibohd.elf.dir/Debug/cli/cli.c.o
cliFunc_i2cRecv                                   CMakeFiles/kiibohd.elf.dir/Scan/ISSILed/led_scan.c.o
cliFunc_i2cSend                                   CMakeFiles/kiibohd.elf.dir/Scan/ISSILed/led_scan.c.o
cliFunc_kbdProtocol                               CMakeFiles/kiibohd.elf.dir/Output/pjrcUSB/output_com.c.o
cliFunc_keyHold                                   CMakeFiles/kiibohd.elf.dir/Macro/PartialMap/macro.c.o
cliFunc_keyPress                                  CMakeFiles/kiibohd.elf.dir/Macro/PartialMap/macro.c.o
cliFunc_keyRelease                                CMakeFiles/kiibohd.elf.dir/Macro/PartialMap/macro.c.o
cliFunc_layerDebug                                CMakeFiles/kiibohd.elf.dir/Macro/PartialMap/macro.c.o
cliFunc_layerList                                 CMakeFiles/kiibohd.elf.dir/Macro/PartialMap/macro.c.o
cliFunc_layerState                                CMakeFiles/kiibohd.elf.dir/Macro/PartialMap/macro.c.o
cliFunc_led                                       CMakeFiles/kiibohd.elf.dir/Debug/cli/cli.c.o
cliFunc_ledCtrl                                   CMakeFiles/kiibohd.elf.dir/Scan/ISSILed/led_scan.c.o
cliFunc_ledRPage                                  CMakeFiles/kiibohd.elf.dir/Scan/ISSILed/led_scan.c.o
cliFunc_ledStart                                  CMakeFiles/kiibohd.elf.dir/Scan/ISSILed/led_scan.c.o
cliFunc_ledTest                                   CMakeFiles/kiibohd.elf.dir/Scan/ISSILed/led_scan.c.o
cliFunc_ledWPage                                  CMakeFiles/kiibohd.elf.dir/Scan/ISSILed/led_scan.c.o
cliFunc_ledZero                                   CMakeFiles/kiibohd.elf.dir/Scan/ISSILed/led_scan.c.o
cliFunc_macroDebug                                CMakeFiles/kiibohd.elf.dir/Macro/PartialMap/macro.c.o
cliFunc_macroList                                 CMakeFiles/kiibohd.elf.dir/Macro/PartialMap/macro.c.o
cliFunc_macroProc                                 CMakeFiles/kiibohd.elf.dir/Macro/PartialMap/macro.c.o
cliFunc_macroShow                                 CMakeFiles/kiibohd.elf.dir/Macro/PartialMap/macro.c.o
cliFunc_macroStep                                 CMakeFiles/kiibohd.elf.dir/Macro/PartialMap/macro.c.o
cliFunc_matrixDebug                               CMakeFiles/kiibohd.elf.dir/Scan/MatrixARM/matrix_scan.c.o
cliFunc_matrixInfo                                CMakeFiles/kiibohd.elf.dir/Scan/MatrixARM/matrix_scan.c.o
cliFunc_matrixState                               CMakeFiles/kiibohd.elf.dir/Scan/MatrixARM/matrix_scan.c.o
cliFunc_outputDebug                               CMakeFiles/kiibohd.elf.dir/Output/pjrcUSB/output_com.c.o
cliFunc_readLEDs                                  CMakeFiles/kiibohd.elf.dir/Output/pjrcUSB/output_com.c.o
cliFunc_reload                                    CMakeFiles/kiibohd.elf.dir/Debug/cli/cli.c.o
cliFunc_reset                                     CMakeFiles/kiibohd.elf.dir/Debug/cli/cli.c.o
cliFunc_restart                                   CMakeFiles/kiibohd.elf.dir/Debug/cli/cli.c.o
cliFunc_sendKeys                                  CMakeFiles/kiibohd.elf.dir/Output/pjrcUSB/output_com.c.o
cliFunc_setKeys                                   CMakeFiles/kiibohd.elf.dir/Output/pjrcUSB/output_com.c.o
cliFunc_setMod                                    CMakeFiles/kiibohd.elf.dir/Output/pjrcUSB/output_com.c.o
cliFunc_usbInitTime                               CMakeFiles/kiibohd.elf.dir/Output/pjrcUSB/output_com.c.o
cliFunc_version                                   CMakeFiles/kiibohd.elf.dir/Debug/cli/cli.c.o
cmp0_isr                                          CMakeFiles/kiibohd.elf.dir/Lib/mk20dx.c.o
cmp1_isr                                          CMakeFiles/kiibohd.elf.dir/Lib/mk20dx.c.o
cmp2_isr                                          CMakeFiles/kiibohd.elf.dir/Lib/mk20dx.c.o
cmt_isr                                           CMakeFiles/kiibohd.elf.dir/Lib/mk20dx.c.o
dac0_isr                                          CMakeFiles/kiibohd.elf.dir/Lib/mk20dx.c.o
dac1_isr                                          CMakeFiles/kiibohd.elf.dir/Lib/mk20dx.c.o
debugmonitor_isr                                  CMakeFiles/kiibohd.elf.dir/Lib/mk20dx.c.o
default_scanMap                                   CMakeFiles/kiibohd.elf.dir/Macro/PartialMap/macro.c.o
default_tl_0x00                                   CMakeFiles/kiibohd.elf.dir/Macro/PartialMap/macro.c.o
default_tl_0x01                                   CMakeFiles/kiibohd.elf.dir/Macro/PartialMap/macro.c.o
default_tl_0x02                                   CMakeFiles/kiibohd.elf.dir/Macro/PartialMap/macro.c.o
default_tl_0x03                                   CMakeFiles/kiibohd.elf.dir/Macro/PartialMap/macro.c.o
default_tl_0x04                                   CMakeFiles/kiibohd.elf.dir/Macro/PartialMap/macro.c.o
default_tl_0x05                                   CMakeFiles/kiibohd.elf.dir/Macro/PartialMap/macro.c.o
default_tl_0x06                                   CMakeFiles/kiibohd.elf.dir/Macro/PartialMap/macro.c.o
default_tl_0x07                                   CMakeFiles/kiibohd.elf.dir/Macro/PartialMap/macro.c.o
default_tl_0x08                                   CMakeFiles/kiibohd.elf.dir/Macro/PartialMap/macro.c.o
default_tl_0x09                                   CMakeFiles/kiibohd.elf.dir/Macro/PartialMap/macro.c.o
default_tl_0x0A                                   CMakeFiles/kiibohd.elf.dir/Macro/PartialMap/macro.c.o
default_tl_0x0B                                   CMakeFiles/kiibohd.elf.dir/Macro/PartialMap/macro.c.o
default_tl_0x0C                                   CMakeFiles/kiibohd.elf.dir/Macro/PartialMap/macro.c.o
default_tl_0x0D                                   CMakeFiles/kiibohd.elf.dir/Macro/PartialMap/macro.c.o
default_tl_0x0E                                   CMakeFiles/kiibohd.elf.dir/Macro/PartialMap/macro.c.o
default_tl_0x0F                                   CMakeFiles/kiibohd.elf.dir/Macro/PartialMap/macro.c.o
default_tl_0x10                                   CMakeFiles/kiibohd.elf.dir/Macro/PartialMap/macro.c.o
default_tl_0x11                                   CMakeFiles/kiibohd.elf.dir/Macro/PartialMap/macro.c.o
default_tl_0x12                                   CMakeFiles/kiibohd.elf.dir/Macro/PartialMap/macro.c.o
default_tl_0x13                                   CMakeFiles/kiibohd.elf.dir/Macro/PartialMap/macro.c.o
default_tl_0x14                                   CMakeFiles/kiibohd.elf.dir/Macro/PartialMap/macro.c.o
default_tl_0x15                                   CMakeFiles/kiibohd.elf.dir/Macro/PartialMap/macro.c.o
default_tl_0x16                                   CMakeFiles/kiibohd.elf.dir/Macro/PartialMap/macro.c.o
default_tl_0x17                                   CMakeFiles/kiibohd.elf.dir/Macro/PartialMap/macro.c.o
default_tl_0x18                                   CMakeFiles/kiibohd.elf.dir/Macro/PartialMap/macro.c.o
default_tl_0x19                                   CMakeFiles/kiibohd.elf.dir/Macro/PartialMap/macro.c.o
default_tl_0x1A                                   CMakeFiles/kiibohd.elf.dir/Macro/PartialMap/macro.c.o
default_tl_0x1B                                   CMakeFiles/kiibohd.elf.dir/Macro/PartialMap/macro.c.o
default_tl_0x1C                                   CMakeFiles/kiibohd.elf.dir/Macro/PartialMap/macro.c.o
default_tl_0x1D                                   CMakeFiles/kiibohd.elf.dir/Macro/PartialMap/macro.c.o
default_tl_0x1E                                   CMakeFiles/kiibohd.elf.dir/Macro/PartialMap/macro.c.o
default_tl_0x1F                                   CMakeFiles/kiibohd.elf.dir/Macro/PartialMap/macro.c.o
default_tl_0x20                                   CMakeFiles/kiibohd.elf.dir/Macro/PartialMap/macro.c.o
default_tl_0x21                                   CMakeFiles/kiibohd.elf.dir/Macro/PartialMap/macro.c.o
default_tl_0x22                                   CMakeFiles/kiibohd.elf.dir/Macro/PartialMap/macro.c.o
default_tl_0x23                                   CMakeFiles/kiibohd.elf.dir/Macro/PartialMap/macro.c.o
default_tl_0x24                                   CMakeFiles/kiibohd.elf.dir/Macro/PartialMap/macro.c.o
default_tl_0x25                                   CMakeFiles/kiibohd.elf.dir/Macro/PartialMap/macro.c.o
default_tl_0x26                                   CMakeFiles/kiibohd.elf.dir/Macro/PartialMap/macro.c.o
default_tl_0x27                                   CMakeFiles/kiibohd.elf.dir/Macro/PartialMap/macro.c.o
default_tl_0x28                                   CMakeFiles/kiibohd.elf.dir/Macro/PartialMap/macro.c.o
default_tl_0x29                                   CMakeFiles/kiibohd.elf.dir/Macro/PartialMap/macro.c.o
default_tl_0x2A                                   CMakeFiles/kiibohd.elf.dir/Macro/PartialMap/macro.c.o
default_tl_0x2B                                   CMakeFiles/kiibohd.elf.dir/Macro/PartialMap/macro.c.o
default_tl_0x2C                                   CMakeFiles/kiibohd.elf.dir/Macro/PartialMap/macro.c.o
default_tl_0x2D                                   CMakeFiles/kiibohd.elf.dir/Macro/PartialMap/macro.c.o
default_tl_0x2E                                   CMakeFiles/kiibohd.elf.dir/Macro/PartialMap/macro.c.o
default_tl_0x2F                                   CMakeFiles/kiibohd.elf.dir/Macro/PartialMap/macro.c.o
default_tl_0x30                                   CMakeFiles/kiibohd.elf.dir/Macro/PartialMap/macro.c.o
default_tl_0x31                                   CMakeFiles/kiibohd.elf.dir/Macro/PartialMap/macro.c.o
default_tl_0x32                                   CMakeFiles/kiibohd.elf.dir/Macro/PartialMap/macro.c.o
default_tl_0x33                                   CMakeFiles/kiibohd.elf.dir/Macro/PartialMap/macro.c.o
default_tl_0x34                                   CMakeFiles/kiibohd.elf.dir/Macro/PartialMap/macro.c.o
default_tl_0x35                                   CMakeFiles/kiibohd.elf.dir/Macro/PartialMap/macro.c.o
default_tl_0x36                                   CMakeFiles/kiibohd.elf.dir/Macro/PartialMap/macro.c.o
default_tl_0x37                                   CMakeFiles/kiibohd.elf.dir/Macro/PartialMap/macro.c.o
default_tl_0x38                                   CMakeFiles/kiibohd.elf.dir/Macro/PartialMap/macro.c.o
default_tl_0x39                                   CMakeFiles/kiibohd.elf.dir/Macro/PartialMap/macro.c.o
default_tl_0x3A                                   CMakeFiles/kiibohd.elf.dir/Macro/PartialMap/macro.c.o
default_tl_0x3B                                   CMakeFiles/kiibohd.elf.dir/Macro/PartialMap/macro.c.o
default_tl_0x3C                                   CMakeFiles/kiibohd.elf.dir/Macro/PartialMap/macro.c.o
default_tl_0x3D                                   CMakeFiles/kiibohd.elf.dir/Macro/PartialMap/macro.c.o
default_tl_0x3E                                   CMakeFiles/kiibohd.elf.dir/Macro/PartialMap/macro.c.o
default_tl_0x3F                                   CMakeFiles/kiibohd.elf.dir/Macro/PartialMap/macro.c.o
default_tl_0x40                                   CMakeFiles/kiibohd.elf.dir/Macro/PartialMap/macro.c.o
default_tl_0x41                                   CMakeFiles/kiibohd.elf.dir/Macro/PartialMap/macro.c.o
default_tl_0x42                                   CMakeFiles/kiibohd.elf.dir/Macro/PartialMap/macro.c.o
default_tl_0x43                                   CMakeFiles/kiibohd.elf.dir/Macro/PartialMap/macro.c.o
default_tl_0x44                                   CMakeFiles/kiibohd.elf.dir/Macro/PartialMap/macro.c.o
default_tl_0x45                                   CMakeFiles/kiibohd.elf.dir/Macro/PartialMap/macro.c.o
default_tl_0x46                                   CMakeFiles/kiibohd.elf.dir/Macro/PartialMap/macro.c.o
delay                                             CMakeFiles/kiibohd.elf.dir/Lib/delay.c.o
                                                  CMakeFiles/kiibohd.elf.dir/Output/pjrcUSB/arm/usb_dev.c.o
                                                  CMakeFiles/kiibohd.elf.dir/Scan/ISSILed/led_scan.c.o
dma_ch0_isr                                       CMakeFiles/kiibohd.elf.dir/Lib/mk20dx.c.o
dma_ch10_isr                                      CMakeFiles/kiibohd.elf.dir/Lib/mk20dx.c.o
dma_ch11_isr                                      CMakeFiles/kiibohd.elf.dir/Lib/mk20dx.c.o
dma_ch12_isr                                      CMakeFiles/kiibohd.elf.dir/Lib/mk20dx.c.o
dma_ch13_isr                                      CMakeFiles/kiibohd.elf.dir/Lib/mk20dx.c.o
dma_ch14_isr                                      CMakeFiles/kiibohd.elf.dir/Lib/mk20dx.c.o
dma_ch15_isr                                      CMakeFiles/kiibohd.elf.dir/Lib/mk20dx.c.o
dma_ch1_isr                                       CMakeFiles/kiibohd.elf.dir/Lib/mk20dx.c.o
dma_ch2_isr                                       CMakeFiles/kiibohd.elf.dir/Lib/mk20dx.c.o
dma_ch3_isr                                       CMakeFiles/kiibohd.elf.dir/Lib/mk20dx.c.o
dma_ch4_isr                                       CMakeFiles/kiibohd.elf.dir/Lib/mk20dx.c.o
dma_ch5_isr                                       CMakeFiles/kiibohd.elf.dir/Lib/mk20dx.c.o
dma_ch6_isr                                       CMakeFiles/kiibohd.elf.dir/Lib/mk20dx.c.o
dma_ch7_isr                                       CMakeFiles/kiibohd.elf.dir/Lib/mk20dx.c.o
dma_ch8_isr                                       CMakeFiles/kiibohd.elf.dir/Lib/mk20dx.c.o
dma_ch9_isr                                       CMakeFiles/kiibohd.elf.dir/Lib/mk20dx.c.o
dma_error_isr                                     CMakeFiles/kiibohd.elf.dir/Lib/mk20dx.c.o
eqStr                                             CMakeFiles/kiibohd.elf.dir/Debug/print/print.c.o
                                                  CMakeFiles/kiibohd.elf.dir/Debug/cli/cli.c.o
errorLED                                          CMakeFiles/kiibohd.elf.dir/Debug/led/led.c.o
                                                  CMakeFiles/kiibohd.elf.dir/Debug/cli/cli.c.o
fault_isr                                         CMakeFiles/kiibohd.elf.dir/Lib/mk20dx.c.o
flash_cmd_isr                                     CMakeFiles/kiibohd.elf.dir/Lib/mk20dx.c.o
flash_error_isr                                   CMakeFiles/kiibohd.elf.dir/Lib/mk20dx.c.o
ftm0_isr                                          CMakeFiles/kiibohd.elf.dir/Lib/mk20dx.c.o
ftm1_isr                                          CMakeFiles/kiibohd.elf.dir/Lib/mk20dx.c.o
ftm2_isr                                          CMakeFiles/kiibohd.elf.dir/Lib/mk20dx.c.o
ftm3_isr                                          CMakeFiles/kiibohd.elf.dir/Lib/mk20dx.c.o
gVectors                                          CMakeFiles/kiibohd.elf.dir/Lib/mk20dx.c.o
hard_fault_default_isr                            CMakeFiles/kiibohd.elf.dir/Lib/mk20dx.c.o
hard_fault_isr                                    CMakeFiles/kiibohd.elf.dir/Lib/mk20dx.c.o
helpCLIDict_DescEntry                             CMakeFiles/kiibohd.elf.dir/Debug/cli/cli.c.o
hex32ToStr16                                      CMakeFiles/kiibohd.elf.dir/Debug/print/print.c.o
                                                  CMakeFiles/kiibohd.elf.dir/Output/pjrcUSB/arm/usb_dev.c.o
hex32ToStr_op                                     CMakeFiles/kiibohd.elf.dir/Debug/print/print.c.o
hexToStr_op                                       CMakeFiles/kiibohd.elf.dir/Debug/print/print.c.o
i2c0_isr                                          CMakeFiles/kiibohd.elf.dir/Scan/ISSILed/led_scan.c.o
                                                  CMakeFiles/kiibohd.elf.dir/Lib/mk20dx.c.o
i2c1_isr                                          CMakeFiles/kiibohd.elf.dir/Lib/mk20dx.c.o
i2c2_isr                                          CMakeFiles/kiibohd.elf.dir/Lib/mk20dx.c.o
i2cRecvCLIDict_DescEntry                          CMakeFiles/kiibohd.elf.dir/Scan/ISSILed/led_scan.c.o
i2cSendCLIDict_DescEntry                          CMakeFiles/kiibohd.elf.dir/Scan/ISSILed/led_scan.c.o
i2s0_rx_isr                                       CMakeFiles/kiibohd.elf.dir/Lib/mk20dx.c.o
i2s0_tx_isr                                       CMakeFiles/kiibohd.elf.dir/Lib/mk20dx.c.o
init_errorLED                                     CMakeFiles/kiibohd.elf.dir/Debug/led/led.c.o
                                                  CMakeFiles/kiibohd.elf.dir/Debug/cli/cli.c.o
int16ToStr                                        CMakeFiles/kiibohd.elf.dir/Debug/print/print.c.o
int32ToStr                                        CMakeFiles/kiibohd.elf.dir/Debug/print/print.c.o
int8ToStr                                         CMakeFiles/kiibohd.elf.dir/Debug/print/print.c.o
kbdProtocolCLIDict_DescEntry                      CMakeFiles/kiibohd.elf.dir/Output/pjrcUSB/output_com.c.o
keyHoldCLIDict_DescEntry                          CMakeFiles/kiibohd.elf.dir/Macro/PartialMap/macro.c.o
keyPressCLIDict_DescEntry                         CMakeFiles/kiibohd.elf.dir/Macro/PartialMap/macro.c.o
keyReleaseCLIDict_DescEntry                       CMakeFiles/kiibohd.elf.dir/Macro/PartialMap/macro.c.o
layer1_scanMap                                    CMakeFiles/kiibohd.elf.dir/Macro/PartialMap/macro.c.o
layer1_tl_0x00                                    CMakeFiles/kiibohd.elf.dir/Macro/PartialMap/macro.c.o
layer1_tl_0x01                                    CMakeFiles/kiibohd.elf.dir/Macro/PartialMap/macro.c.o
layer1_tl_0x02                                    CMakeFiles/kiibohd.elf.dir/Macro/PartialMap/macro.c.o
layer1_tl_0x03                                    CMakeFiles/kiibohd.elf.dir/Macro/PartialMap/macro.c.o
layer1_tl_0x04                                    CMakeFiles/kiibohd.elf.dir/Macro/PartialMap/macro.c.o
layer1_tl_0x05                                    CMakeFiles/kiibohd.elf.dir/Macro/PartialMap/macro.c.o
layer1_tl_0x06                                    CMakeFiles/kiibohd.elf.dir/Macro/PartialMap/macro.c.o
layer1_tl_0x07                                    CMakeFiles/kiibohd.elf.dir/Macro/PartialMap/macro.c.o
layer1_tl_0x08                                    CMakeFiles/kiibohd.elf.dir/Macro/PartialMap/macro.c.o
layer1_tl_0x09                                    CMakeFiles/kiibohd.elf.dir/Macro/PartialMap/macro.c.o
layer1_tl_0x0A                                    CMakeFiles/kiibohd.elf.dir/Macro/PartialMap/macro.c.o
layer1_tl_0x0B                                    CMakeFiles/kiibohd.elf.dir/Macro/PartialMap/macro.c.o
layer1_tl_0x0C                                    CMakeFiles/kiibohd.elf.dir/Macro/PartialMap/macro.c.o
layer1_tl_0x0D                                    CMakeFiles/kiibohd.elf.dir/Macro/PartialMap/macro.c.o
layer1_tl_0x0E                                    CMakeFiles/kiibohd.elf.dir/Macro/PartialMap/macro.c.o
layer1_tl_0x0F                                    CMakeFiles/kiibohd.elf.dir/Macro/PartialMap/macro.c.o
layer1_tl_0x10                                    CMakeFiles/kiibohd.elf.dir/Macro/PartialMap/macro.c.o
layer1_tl_0x11                                    CMakeFiles/kiibohd.elf.dir/Macro/PartialMap/macro.c.o
layer1_tl_0x12                                    CMakeFiles/kiibohd.elf.dir/Macro/PartialMap/macro.c.o
layer1_tl_0x13                                    CMakeFiles/kiibohd.elf.dir/Macro/PartialMap/macro.c.o
layer1_tl_0x14                                    CMakeFiles/kiibohd.elf.dir/Macro/PartialMap/macro.c.o
layer1_tl_0x15                                    CMakeFiles/kiibohd.elf.dir/Macro/PartialMap/macro.c.o
layer1_tl_0x16                                    CMakeFiles/kiibohd.elf.dir/Macro/PartialMap/macro.c.o
layer1_tl_0x17                                    CMakeFiles/kiibohd.elf.dir/Macro/PartialMap/macro.c.o
layer1_tl_0x18                                    CMakeFiles/kiibohd.elf.dir/Macro/PartialMap/macro.c.o
layer1_tl_0x19                                    CMakeFiles/kiibohd.elf.dir/Macro/PartialMap/macro.c.o
layer1_tl_0x1A                                    CMakeFiles/kiibohd.elf.dir/Macro/PartialMap/macro.c.o
layer1_tl_0x1B                                    CMakeFiles/kiibohd.elf.dir/Macro/PartialMap/macro.c.o
layer1_tl_0x1C                                    CMakeFiles/kiibohd.elf.dir/Macro/PartialMap/macro.c.o
layer1_tl_0x1D                                    CMakeFiles/kiibohd.elf.dir/Macro/PartialMap/macro.c.o
layer1_tl_0x1E                                    CMakeFiles/kiibohd.elf.dir/Macro/PartialMap/macro.c.o
layer1_tl_0x1F                                    CMakeFiles/kiibohd.elf.dir/Macro/PartialMap/macro.c.o
layer1_tl_0x20                                    CMakeFiles/kiibohd.elf.dir/Macro/PartialMap/macro.c.o
layer1_tl_0x21                                    CMakeFiles/kiibohd.elf.dir/Macro/PartialMap/macro.c.o
layer1_tl_0x22                                    CMakeFiles/kiibohd.elf.dir/Macro/PartialMap/macro.c.o
layer1_tl_0x23                                    CMakeFiles/kiibohd.elf.dir/Macro/PartialMap/macro.c.o
layer1_tl_0x24                                    CMakeFiles/kiibohd.elf.dir/Macro/PartialMap/macro.c.o
layer1_tl_0x25                                    CMakeFiles/kiibohd.elf.dir/Macro/PartialMap/macro.c.o
layer1_tl_0x26                                    CMakeFiles/kiibohd.elf.dir/Macro/PartialMap/macro.c.o
layer1_tl_0x27                                    CMakeFiles/kiibohd.elf.dir/Macro/PartialMap/macro.c.o
layer1_tl_0x28                                    CMakeFiles/kiibohd.elf.dir/Macro/PartialMap/macro.c.o
layer1_tl_0x29                                    CMakeFiles/kiibohd.elf.dir/Macro/PartialMap/macro.c.o
layer1_tl_0x2A                                    CMakeFiles/kiibohd.elf.dir/Macro/PartialMap/macro.c.o
layer1_tl_0x2B                                    CMakeFiles/kiibohd.elf.dir/Macro/PartialMap/macro.c.o
layer1_tl_0x2C                                    CMakeFiles/kiibohd.elf.dir/Macro/PartialMap/macro.c.o
layer1_tl_0x2D                                    CMakeFiles/kiibohd.elf.dir/Macro/PartialMap/macro.c.o
layer1_tl_0x2E                                    CMakeFiles/kiibohd.elf.dir/Macro/PartialMap/macro.c.o
layer1_tl_0x2F                                    CMakeFiles/kiibohd.elf.dir/Macro/PartialMap/macro.c.o
layer1_tl_0x30                                    CMakeFiles/kiibohd.elf.dir/Macro/PartialMap/macro.c.o
layer1_tl_0x31                                    CMakeFiles/kiibohd.elf.dir/Macro/PartialMap/macro.c.o
layer1_tl_0x32                                    CMakeFiles/kiibohd.elf.dir/Macro/PartialMap/macro.c.o
layer1_tl_0x33                                    CMakeFiles/kiibohd.elf.dir/Macro/PartialMap/macro.c.o
layer1_tl_0x34                                    CMakeFiles/kiibohd.elf.dir/Macro/PartialMap/macro.c.o
layer1_tl_0x35                                    CMakeFiles/kiibohd.elf.dir/Macro/PartialMap/macro.c.o
layer1_tl_0x36                                    CMakeFiles/kiibohd.elf.dir/Macro/PartialMap/macro.c.o
layer1_tl_0x37                                    CMakeFiles/kiibohd.elf.dir/Macro/PartialMap/macro.c.o
layer1_tl_0x38                                    CMakeFiles/kiibohd.elf.dir/Macro/PartialMap/macro.c.o
layer1_tl_0x39                                    CMakeFiles/kiibohd.elf.dir/Macro/PartialMap/macro.c.o
layer1_tl_0x3A                                    CMakeFiles/kiibohd.elf.dir/Macro/PartialMap/macro.c.o
layer1_tl_0x3B                                    CMakeFiles/kiibohd.elf.dir/Macro/PartialMap/macro.c.o
layer1_tl_0x3C                                    CMakeFiles/kiibohd.elf.dir/Macro/PartialMap/macro.c.o
layer1_tl_0x3D                                    CMakeFiles/kiibohd.elf.dir/Macro/PartialMap/macro.c.o
layer1_tl_0x3E                                    CMakeFiles/kiibohd.elf.dir/Macro/PartialMap/macro.c.o
layer1_tl_0x3F                                    CMakeFiles/kiibohd.elf.dir/Macro/PartialMap/macro.c.o
layer1_tl_0x40                                    CMakeFiles/kiibohd.elf.dir/Macro/PartialMap/macro.c.o
layer1_tl_0x41                                    CMakeFiles/kiibohd.elf.dir/Macro/PartialMap/macro.c.o
layer1_tl_0x42                                    CMakeFiles/kiibohd.elf.dir/Macro/PartialMap/macro.c.o
layer1_tl_0x43                                    CMakeFiles/kiibohd.elf.dir/Macro/PartialMap/macro.c.o
layer1_tl_0x44                                    CMakeFiles/kiibohd.elf.dir/Macro/PartialMap/macro.c.o
layer1_tl_0x45                                    CMakeFiles/kiibohd.elf.dir/Macro/PartialMap/macro.c.o
layer1_tl_0x46                                    CMakeFiles/kiibohd.elf.dir/Macro/PartialMap/macro.c.o
layerDebugCLIDict_DescEntry                       CMakeFiles/kiibohd.elf.dir/Macro/PartialMap/macro.c.o
layerDebugMode                                    CMakeFiles/kiibohd.elf.dir/Macro/PartialMap/macro.c.o
layerListCLIDict_DescEntry                        CMakeFiles/kiibohd.elf.dir/Macro/PartialMap/macro.c.o
layerStateCLIDict_DescEntry                       CMakeFiles/kiibohd.elf.dir/Macro/PartialMap/macro.c.o
ledCLIDict                                        CMakeFiles/kiibohd.elf.dir/Scan/ISSILed/led_scan.c.o
ledCLIDictName                                    CMakeFiles/kiibohd.elf.dir/Scan/ISSILed/led_scan.c.o
ledCLIDict_DescEntry                              CMakeFiles/kiibohd.elf.dir/Debug/cli/cli.c.o
ledCtrlCLIDict_DescEntry                          CMakeFiles/kiibohd.elf.dir/Scan/ISSILed/led_scan.c.o
ledRPageCLIDict_DescEntry                         CMakeFiles/kiibohd.elf.dir/Scan/ISSILed/led_scan.c.o
ledStartCLIDict_DescEntry                         CMakeFiles/kiibohd.elf.dir/Scan/ISSILed/led_scan.c.o
ledTestCLIDict_DescEntry                          CMakeFiles/kiibohd.elf.dir/Scan/ISSILed/led_scan.c.o
ledWPageCLIDict_DescEntry                         CMakeFiles/kiibohd.elf.dir/Scan/ISSILed/led_scan.c.o
ledZeroCLIDict_DescEntry                          CMakeFiles/kiibohd.elf.dir/Scan/ISSILed/led_scan.c.o
lenStr                                            CMakeFiles/kiibohd.elf.dir/Debug/print/print.c.o
                                                  CMakeFiles/kiibohd.elf.dir/Debug/cli/cli.c.o
low_voltage_isr                                   CMakeFiles/kiibohd.elf.dir/Lib/mk20dx.c.o
lptmr_isr                                         CMakeFiles/kiibohd.elf.dir/Lib/mk20dx.c.o
macroCLIDict                                      CMakeFiles/kiibohd.elf.dir/Macro/PartialMap/macro.c.o
macroCLIDictName                                  CMakeFiles/kiibohd.elf.dir/Macro/PartialMap/macro.c.o
macroDebugCLIDict_DescEntry                       CMakeFiles/kiibohd.elf.dir/Macro/PartialMap/macro.c.o
macroDebugMode                                    CMakeFiles/kiibohd.elf.dir/Macro/PartialMap/macro.c.o
macroDebugShowResult                              CMakeFiles/kiibohd.elf.dir/Macro/PartialMap/macro.c.o
macroDebugShowTrigger                             CMakeFiles/kiibohd.elf.dir/Macro/PartialMap/macro.c.o
macroLayerIndexStack                              CMakeFiles/kiibohd.elf.dir/Macro/PartialMap/macro.c.o
macroLayerIndexStackSize                          CMakeFiles/kiibohd.elf.dir/Macro/PartialMap/macro.c.o
macroListCLIDict_DescEntry                        CMakeFiles/kiibohd.elf.dir/Macro/PartialMap/macro.c.o
macroPauseMode                                    CMakeFiles/kiibohd.elf.dir/Macro/PartialMap/macro.c.o
macroProcCLIDict_DescEntry                        CMakeFiles/kiibohd.elf.dir/Macro/PartialMap/macro.c.o
macroResultMacroPendingList                       CMakeFiles/kiibohd.elf.dir/Macro/PartialMap/result.c.o
                                                  CMakeFiles/kiibohd.elf.dir/Macro/PartialMap/macro.c.o
macroShowCLIDict_DescEntry                        CMakeFiles/kiibohd.elf.dir/Macro/PartialMap/macro.c.o
macroStepCLIDict_DescEntry                        CMakeFiles/kiibohd.elf.dir/Macro/PartialMap/macro.c.o
macroStepCounter                                  CMakeFiles/kiibohd.elf.dir/Macro/PartialMap/macro.c.o
macroTriggerListBuffer                            CMakeFiles/kiibohd.elf.dir/Macro/PartialMap/macro.c.o
                                                  CMakeFiles/kiibohd.elf.dir/Macro/PartialMap/trigger.c.o
macroTriggerListBufferSize                        CMakeFiles/kiibohd.elf.dir/Macro/PartialMap/macro.c.o
                                                  CMakeFiles/kiibohd.elf.dir/Macro/PartialMap/trigger.c.o
macroTriggerListLayerCache                        CMakeFiles/kiibohd.elf.dir/Macro/PartialMap/macro.c.o
macroTriggerMacroPendingList                      CMakeFiles/kiibohd.elf.dir/Macro/PartialMap/trigger.c.o
                                                  CMakeFiles/kiibohd.elf.dir/Macro/PartialMap/macro.c.o
macroTriggerMacroPendingListSize                  CMakeFiles/kiibohd.elf.dir/Macro/PartialMap/trigger.c.o
                                                  CMakeFiles/kiibohd.elf.dir/Macro/PartialMap/macro.c.o
main                                              CMakeFiles/kiibohd.elf.dir/main.c.o
                                                  CMakeFiles/kiibohd.elf.dir/Lib/mk20dx.c.o
matrixCLIDict                                     CMakeFiles/kiibohd.elf.dir/Scan/MatrixARM/matrix_scan.c.o
matrixCLIDictName                                 CMakeFiles/kiibohd.elf.dir/Scan/MatrixARM/matrix_scan.c.o
matrixCurScans                                    CMakeFiles/kiibohd.elf.dir/Scan/MatrixARM/matrix_scan.c.o
matrixDebugCLIDict_DescEntry                      CMakeFiles/kiibohd.elf.dir/Scan/MatrixARM/matrix_scan.c.o
matrixDebugMode                                   CMakeFiles/kiibohd.elf.dir/Scan/MatrixARM/matrix_scan.c.o
matrixDebugStateCounter                           CMakeFiles/kiibohd.elf.dir/Scan/MatrixARM/matrix_scan.c.o
matrixInfoCLIDict_DescEntry                       CMakeFiles/kiibohd.elf.dir/Scan/MatrixARM/matrix_scan.c.o
matrixMaxScans                                    CMakeFiles/kiibohd.elf.dir/Scan/MatrixARM/matrix_scan.c.o
matrixPrevScans                                   CMakeFiles/kiibohd.elf.dir/Scan/MatrixARM/matrix_scan.c.o
matrixStateCLIDict_DescEntry                      CMakeFiles/kiibohd.elf.dir/Scan/MatrixARM/matrix_scan.c.o
mcg_isr                                           CMakeFiles/kiibohd.elf.dir/Lib/mk20dx.c.o
mcm_isr                                           CMakeFiles/kiibohd.elf.dir/Lib/mk20dx.c.o
memcmp                                            CMakeFiles/kiibohd.elf.dir/Lib/mk20dx.c.o
memcpy                                            CMakeFiles/kiibohd.elf.dir/Lib/mk20dx.c.o
                                                  CMakeFiles/kiibohd.elf.dir/Output/pjrcUSB/arm/usb_serial.c.o
                                                  CMakeFiles/kiibohd.elf.dir/Output/pjrcUSB/arm/usb_keyboard.c.o
                                                  CMakeFiles/kiibohd.elf.dir/Output/pjrcUSB/arm/usb_dev.c.o
                                                  CMakeFiles/kiibohd.elf.dir/Macro/PartialMap/result.c.o
memmanage_fault_default_isr                       CMakeFiles/kiibohd.elf.dir/Lib/mk20dx.c.o
memmanage_fault_isr                               CMakeFiles/kiibohd.elf.dir/Lib/mk20dx.c.o
memset                                            CMakeFiles/kiibohd.elf.dir/Lib/mk20dx.c.o
                                                  CMakeFiles/kiibohd.elf.dir/Scan/ISSILed/led_scan.c.o
micros                                            CMakeFiles/kiibohd.elf.dir/Lib/delay.c.o
nmi_default_isr                                   CMakeFiles/kiibohd.elf.dir/Lib/mk20dx.c.o
nmi_isr                                           CMakeFiles/kiibohd.elf.dir/Lib/mk20dx.c.o
numToInt                                          CMakeFiles/kiibohd.elf.dir/Debug/print/print.c.o
                                                  CMakeFiles/kiibohd.elf.dir/Output/pjrcUSB/output_com.c.o
                                                  CMakeFiles/kiibohd.elf.dir/Macro/PartialMap/macro.c.o
                                                  CMakeFiles/kiibohd.elf.dir/Scan/MatrixARM/matrix_scan.c.o
                                                  CMakeFiles/kiibohd.elf.dir/Scan/ISSILed/led_scan.c.o
nvic_execution_priority                           CMakeFiles/kiibohd.elf.dir/Lib/mk20dx.c.o
outputCLIDict                                     CMakeFiles/kiibohd.elf.dir/Output/pjrcUSB/output_com.c.o
outputCLIDictName                                 CMakeFiles/kiibohd.elf.dir/Output/pjrcUSB/output_com.c.o
outputDebugCLIDict_DescEntry                      CMakeFiles/kiibohd.elf.dir/Output/pjrcUSB/output_com.c.o
pdb_isr                                           CMakeFiles/kiibohd.elf.dir/Lib/mk20dx.c.o
pendablesrvreq_isr                                CMakeFiles/kiibohd.elf.dir/Lib/mk20dx.c.o
pit0_isr                                          CMakeFiles/kiibohd.elf.dir/Lib/mk20dx.c.o
pit1_isr                                          CMakeFiles/kiibohd.elf.dir/Lib/mk20dx.c.o
pit2_isr                                          CMakeFiles/kiibohd.elf.dir/Lib/mk20dx.c.o
pit3_isr                                          CMakeFiles/kiibohd.elf.dir/Lib/mk20dx.c.o
porta_isr                                         CMakeFiles/kiibohd.elf.dir/Lib/mk20dx.c.o
portb_isr                                         CMakeFiles/kiibohd.elf.dir/Lib/mk20dx.c.o
portc_isr                                         CMakeFiles/kiibohd.elf.dir/Lib/mk20dx.c.o
portd_isr                                         CMakeFiles/kiibohd.elf.dir/Lib/mk20dx.c.o
porte_isr                                         CMakeFiles/kiibohd.elf.dir/Lib/mk20dx.c.o
printHex32_op                                     CMakeFiles/kiibohd.elf.dir/Debug/print/print.c.o
                                                  CMakeFiles/kiibohd.elf.dir/Debug/cli/cli.c.o
                                                  CMakeFiles/kiibohd.elf.dir/Lib/mk20dx.c.o
printHex_op                                       CMakeFiles/kiibohd.elf.dir/Debug/print/print.c.o
                                                  CMakeFiles/kiibohd.elf.dir/Debug/cli/cli.c.o
                                                  CMakeFiles/kiibohd.elf.dir/Output/pjrcUSB/arm/usb_keyboard.c.o
                                                  CMakeFiles/kiibohd.elf.dir/Output/pjrcUSB/arm/usb_dev.c.o
                                                  CMakeFiles/kiibohd.elf.dir/Output/pjrcUSB/output_com.c.o
                                                  CMakeFiles/kiibohd.elf.dir/Macro/PartialMap/macro.c.o
                                                  CMakeFiles/kiibohd.elf.dir/Scan/MatrixARM/matrix_scan.c.o
                                                  CMakeFiles/kiibohd.elf.dir/Scan/ISSILed/led_scan.c.o
printInt16                                        CMakeFiles/kiibohd.elf.dir/Debug/print/print.c.o
                                                  CMakeFiles/kiibohd.elf.dir/Output/pjrcUSB/output_com.c.o
                                                  CMakeFiles/kiibohd.elf.dir/Macro/PartialMap/macro.c.o
printInt32                                        CMakeFiles/kiibohd.elf.dir/Debug/print/print.c.o
                                                  CMakeFiles/kiibohd.elf.dir/Output/pjrcUSB/output_com.c.o
printInt8                                         CMakeFiles/kiibohd.elf.dir/Debug/print/print.c.o
                                                  CMakeFiles/kiibohd.elf.dir/Output/pjrcUSB/output_com.c.o
                                                  CMakeFiles/kiibohd.elf.dir/Macro/PartialMap/macro.c.o
                                                  CMakeFiles/kiibohd.elf.dir/Scan/MatrixARM/matrix_scan.c.o
printstrs                                         CMakeFiles/kiibohd.elf.dir/Debug/print/print.c.o
                                                  CMakeFiles/kiibohd.elf.dir/Debug/cli/cli.c.o
readLEDsCLIDict_DescEntry                         CMakeFiles/kiibohd.elf.dir/Output/pjrcUSB/output_com.c.o
reloadCLIDict_DescEntry                           CMakeFiles/kiibohd.elf.dir/Debug/cli/cli.c.o
resetCLIDict_DescEntry                            CMakeFiles/kiibohd.elf.dir/Debug/cli/cli.c.o
restartCLIDict_DescEntry                          CMakeFiles/kiibohd.elf.dir/Debug/cli/cli.c.o
revsStr                                           CMakeFiles/kiibohd.elf.dir/Debug/print/print.c.o
rm0_guide                                         CMakeFiles/kiibohd.elf.dir/Macro/PartialMap/macro.c.o
rm10_guide                                        CMakeFiles/kiibohd.elf.dir/Macro/PartialMap/macro.c.o
rm11_guide                                        CMakeFiles/kiibohd.elf.dir/Macro/PartialMap/macro.c.o
rm12_guide                                        CMakeFiles/kiibohd.elf.dir/Macro/PartialMap/macro.c.o
rm13_guide                                        CMakeFiles/kiibohd.elf.dir/Macro/PartialMap/macro.c.o
rm14_guide                                        CMakeFiles/kiibohd.elf.dir/Macro/PartialMap/macro.c.o
rm15_guide                                        CMakeFiles/kiibohd.elf.dir/Macro/PartialMap/macro.c.o
rm16_guide                                        CMakeFiles/kiibohd.elf.dir/Macro/PartialMap/macro.c.o
rm17_guide                                        CMakeFiles/kiibohd.elf.dir/Macro/PartialMap/macro.c.o
rm18_guide                                        CMakeFiles/kiibohd.elf.dir/Macro/PartialMap/macro.c.o
rm19_guide                                        CMakeFiles/kiibohd.elf.dir/Macro/PartialMap/macro.c.o
rm1_guide                                         CMakeFiles/kiibohd.elf.dir/Macro/PartialMap/macro.c.o
rm20_guide                                        CMakeFiles/kiibohd.elf.dir/Macro/PartialMap/macro.c.o
rm21_guide                                        CMakeFiles/kiibohd.elf.dir/Macro/PartialMap/macro.c.o
rm22_guide                                        CMakeFiles/kiibohd.elf.dir/Macro/PartialMap/macro.c.o
rm23_guide                                        CMakeFiles/kiibohd.elf.dir/Macro/PartialMap/macro.c.o
rm24_guide                                        CMakeFiles/kiibohd.elf.dir/Macro/PartialMap/macro.c.o
rm25_guide                                        CMakeFiles/kiibohd.elf.dir/Macro/PartialMap/macro.c.o
rm26_guide                                        CMakeFiles/kiibohd.elf.dir/Macro/PartialMap/macro.c.o
rm27_guide                                        CMakeFiles/kiibohd.elf.dir/Macro/PartialMap/macro.c.o
rm28_guide                                        CMakeFiles/kiibohd.elf.dir/Macro/PartialMap/macro.c.o
rm29_guide                                        CMakeFiles/kiibohd.elf.dir/Macro/PartialMap/macro.c.o
rm2_guide                                         CMakeFiles/kiibohd.elf.dir/Macro/PartialMap/macro.c.o
rm30_guide                                        CMakeFiles/kiibohd.elf.dir/Macro/PartialMap/macro.c.o
rm31_guide                                        CMakeFiles/kiibohd.elf.dir/Macro/PartialMap/macro.c.o
rm32_guide                                        CMakeFiles/kiibohd.elf.dir/Macro/PartialMap/macro.c.o
rm33_guide                                        CMakeFiles/kiibohd.elf.dir/Macro/PartialMap/macro.c.o
rm34_guide                                        CMakeFiles/kiibohd.elf.dir/Macro/PartialMap/macro.c.o
rm35_guide                                        CMakeFiles/kiibohd.elf.dir/Macro/PartialMap/macro.c.o
rm36_guide                                        CMakeFiles/kiibohd.elf.dir/Macro/PartialMap/macro.c.o
rm37_guide                                        CMakeFiles/kiibohd.elf.dir/Macro/PartialMap/macro.c.o
rm38_guide                                        CMakeFiles/kiibohd.elf.dir/Macro/PartialMap/macro.c.o
rm39_guide                                        CMakeFiles/kiibohd.elf.dir/Macro/PartialMap/macro.c.o
rm3_guide                                         CMakeFiles/kiibohd.elf.dir/Macro/PartialMap/macro.c.o
rm40_guide                                        CMakeFiles/kiibohd.elf.dir/Macro/PartialMap/macro.c.o
rm41_guide                                        CMakeFiles/kiibohd.elf.dir/Macro/PartialMap/macro.c.o
rm42_guide                                        CMakeFiles/kiibohd.elf.dir/Macro/PartialMap/macro.c.o
rm43_guide                                        CMakeFiles/kiibohd.elf.dir/Macro/PartialMap/macro.c.o
rm44_guide                                        CMakeFiles/kiibohd.elf.dir/Macro/PartialMap/macro.c.o
rm45_guide                                        CMakeFiles/kiibohd.elf.dir/Macro/PartialMap/macro.c.o
rm46_guide                                        CMakeFiles/kiibohd.elf.dir/Macro/PartialMap/macro.c.o
rm47_guide                                        CMakeFiles/kiibohd.elf.dir/Macro/PartialMap/macro.c.o
rm48_guide                                        CMakeFiles/kiibohd.elf.dir/Macro/PartialMap/macro.c.o
rm49_guide                                        CMakeFiles/kiibohd.elf.dir/Macro/PartialMap/macro.c.o
rm4_guide                                         CMakeFiles/kiibohd.elf.dir/Macro/PartialMap/macro.c.o
rm50_guide                                        CMakeFiles/kiibohd.elf.dir/Macro/PartialMap/macro.c.o
rm51_guide                                        CMakeFiles/kiibohd.elf.dir/Macro/PartialMap/macro.c.o
rm52_guide                                        CMakeFiles/kiibohd.elf.dir/Macro/PartialMap/macro.c.o
rm53_guide                                        CMakeFiles/kiibohd.elf.dir/Macro/PartialMap/macro.c.o
rm54_guide                                        CMakeFiles/kiibohd.elf.dir/Macro/PartialMap/macro.c.o
rm55_guide                                        CMakeFiles/kiibohd.elf.dir/Macro/PartialMap/macro.c.o
rm56_guide                                        CMakeFiles/kiibohd.elf.dir/Macro/PartialMap/macro.c.o
rm57_guide                                        CMakeFiles/kiibohd.elf.dir/Macro/PartialMap/macro.c.o
rm58_guide                                        CMakeFiles/kiibohd.elf.dir/Macro/PartialMap/macro.c.o
rm59_guide                                        CMakeFiles/kiibohd.elf.dir/Macro/PartialMap/macro.c.o
rm5_guide                                         CMakeFiles/kiibohd.elf.dir/Macro/PartialMap/macro.c.o
rm60_guide                                        CMakeFiles/kiibohd.elf.dir/Macro/PartialMap/macro.c.o
rm61_guide                                        CMakeFiles/kiibohd.elf.dir/Macro/PartialMap/macro.c.o
rm62_guide                                        CMakeFiles/kiibohd.elf.dir/Macro/PartialMap/macro.c.o
rm63_guide                                        CMakeFiles/kiibohd.elf.dir/Macro/PartialMap/macro.c.o
rm64_guide                                        CMakeFiles/kiibohd.elf.dir/Macro/PartialMap/macro.c.o
rm65_guide                                        CMakeFiles/kiibohd.elf.dir/Macro/PartialMap/macro.c.o
rm66_guide                                        CMakeFiles/kiibohd.elf.dir/Macro/PartialMap/macro.c.o
rm67_guide                                        CMakeFiles/kiibohd.elf.dir/Macro/PartialMap/macro.c.o
rm68_guide                                        CMakeFiles/kiibohd.elf.dir/Macro/PartialMap/macro.c.o
rm69_guide                                        CMakeFiles/kiibohd.elf.dir/Macro/PartialMap/macro.c.o
rm6_guide                                         CMakeFiles/kiibohd.elf.dir/Macro/PartialMap/macro.c.o
rm70_guide                                        CMakeFiles/kiibohd.elf.dir/Macro/PartialMap/macro.c.o
rm71_guide                                        CMakeFiles/kiibohd.elf.dir/Macro/PartialMap/macro.c.o
rm72_guide                                        CMakeFiles/kiibohd.elf.dir/Macro/PartialMap/macro.c.o
rm73_guide                                        CMakeFiles/kiibohd.elf.dir/Macro/PartialMap/macro.c.o
rm74_guide                                        CMakeFiles/kiibohd.elf.dir/Macro/PartialMap/macro.c.o
rm75_guide                                        CMakeFiles/kiibohd.elf.dir/Macro/PartialMap/macro.c.o
rm76_guide                                        CMakeFiles/kiibohd.elf.dir/Macro/PartialMap/macro.c.o
rm77_guide                                        CMakeFiles/kiibohd.elf.dir/Macro/PartialMap/macro.c.o
rm78_guide                                        CMakeFiles/kiibohd.elf.dir/Macro/PartialMap/macro.c.o
rm79_guide                                        CMakeFiles/kiibohd.elf.dir/Macro/PartialMap/macro.c.o
rm7_guide                                         CMakeFiles/kiibohd.elf.dir/Macro/PartialMap/macro.c.o
rm80_guide                                        CMakeFiles/kiibohd.elf.dir/Macro/PartialMap/macro.c.o
rm81_guide                                        CMakeFiles/kiibohd.elf.dir/Macro/PartialMap/macro.c.o
rm82_guide                                        CMakeFiles/kiibohd.elf.dir/Macro/PartialMap/macro.c.o
rm83_guide                                        CMakeFiles/kiibohd.elf.dir/Macro/PartialMap/macro.c.o
rm84_guide                                        CMakeFiles/kiibohd.elf.dir/Macro/PartialMap/macro.c.o
rm85_guide                                        CMakeFiles/kiibohd.elf.dir/Macro/PartialMap/macro.c.o
rm86_guide                                        CMakeFiles/kiibohd.elf.dir/Macro/PartialMap/macro.c.o
rm87_guide                                        CMakeFiles/kiibohd.elf.dir/Macro/PartialMap/macro.c.o
rm88_guide                                        CMakeFiles/kiibohd.elf.dir/Macro/PartialMap/macro.c.o
rm89_guide                                        CMakeFiles/kiibohd.elf.dir/Macro/PartialMap/macro.c.o
rm8_guide                                         CMakeFiles/kiibohd.elf.dir/Macro/PartialMap/macro.c.o
rm90_guide                                        CMakeFiles/kiibohd.elf.dir/Macro/PartialMap/macro.c.o
rm91_guide                                        CMakeFiles/kiibohd.elf.dir/Macro/PartialMap/macro.c.o
rm92_guide                                        CMakeFiles/kiibohd.elf.dir/Macro/PartialMap/macro.c.o
rm93_guide                                        CMakeFiles/kiibohd.elf.dir/Macro/PartialMap/macro.c.o
rm94_guide                                        CMakeFiles/kiibohd.elf.dir/Macro/PartialMap/macro.c.o
rm95_guide                                        CMakeFiles/kiibohd.elf.dir/Macro/PartialMap/macro.c.o
rm96_guide                                        CMakeFiles/kiibohd.elf.dir/Macro/PartialMap/macro.c.o
rm97_guide                                        CMakeFiles/kiibohd.elf.dir/Macro/PartialMap/macro.c.o
rm98_guide                                        CMakeFiles/kiibohd.elf.dir/Macro/PartialMap/macro.c.o
rm9_guide                                         CMakeFiles/kiibohd.elf.dir/Macro/PartialMap/macro.c.o
rtc_alarm_isr                                     CMakeFiles/kiibohd.elf.dir/Lib/mk20dx.c.o
rtc_seconds_isr                                   CMakeFiles/kiibohd.elf.dir/Lib/mk20dx.c.o
sdhc_isr                                          CMakeFiles/kiibohd.elf.dir/Lib/mk20dx.c.o
sendKeysCLIDict_DescEntry                         CMakeFiles/kiibohd.elf.dir/Output/pjrcUSB/output_com.c.o
setKeysCLIDict_DescEntry                          CMakeFiles/kiibohd.elf.dir/Output/pjrcUSB/output_com.c.o
setModCLIDict_DescEntry                           CMakeFiles/kiibohd.elf.dir/Output/pjrcUSB/output_com.c.o
software_isr                                      CMakeFiles/kiibohd.elf.dir/Lib/mk20dx.c.o
spi0_isr                                          CMakeFiles/kiibohd.elf.dir/Lib/mk20dx.c.o
spi1_isr                                          CMakeFiles/kiibohd.elf.dir/Lib/mk20dx.c.o
spi2_isr                                          CMakeFiles/kiibohd.elf.dir/Lib/mk20dx.c.o
string0                                           CMakeFiles/kiibohd.elf.dir/Output/pjrcUSB/arm/usb_desc.c.o
svcall_isr                                        CMakeFiles/kiibohd.elf.dir/Lib/mk20dx.c.o
sys_reset_to_loader_magic                         CMakeFiles/kiibohd.elf.dir/Lib/mk20dx.c.o
                                                  CMakeFiles/kiibohd.elf.dir/Output/pjrcUSB/arm/usb_dev.c.o
systick_default_isr                               CMakeFiles/kiibohd.elf.dir/Lib/mk20dx.c.o
systick_isr                                       CMakeFiles/kiibohd.elf.dir/Lib/mk20dx.c.o
systick_millis_count                              CMakeFiles/kiibohd.elf.dir/Lib/delay.c.o
                                                  CMakeFiles/kiibohd.elf.dir/Output/pjrcUSB/arm/usb_dev.c.o
                                                  CMakeFiles/kiibohd.elf.dir/Scan/MatrixARM/matrix_scan.c.o
                                                  CMakeFiles/kiibohd.elf.dir/Scan/ISSILed/led_scan.c.o
                                                  CMakeFiles/kiibohd.elf.dir/Lib/mk20dx.c.o
tm0_guide                                         CMakeFiles/kiibohd.elf.dir/Macro/PartialMap/macro.c.o
tm100_guide                                       CMakeFiles/kiibohd.elf.dir/Macro/PartialMap/macro.c.o
tm101_guide                                       CMakeFiles/kiibohd.elf.dir/Macro/PartialMap/macro.c.o
tm102_guide                                       CMakeFiles/kiibohd.elf.dir/Macro/PartialMap/macro.c.o
tm103_guide                                       CMakeFiles/kiibohd.elf.dir/Macro/PartialMap/macro.c.o
tm104_guide                                       CMakeFiles/kiibohd.elf.dir/Macro/PartialMap/macro.c.o
tm105_guide                                       CMakeFiles/kiibohd.elf.dir/Macro/PartialMap/macro.c.o
tm106_guide                                       CMakeFiles/kiibohd.elf.dir/Macro/PartialMap/macro.c.o
tm107_guide                                       CMakeFiles/kiibohd.elf.dir/Macro/PartialMap/macro.c.o
tm108_guide                                       CMakeFiles/kiibohd.elf.dir/Macro/PartialMap/macro.c.o
tm10_guide                                        CMakeFiles/kiibohd.elf.dir/Macro/PartialMap/macro.c.o
tm11_guide                                        CMakeFiles/kiibohd.elf.dir/Macro/PartialMap/macro.c.o
tm12_guide                                        CMakeFiles/kiibohd.elf.dir/Macro/PartialMap/macro.c.o
tm13_guide                                        CMakeFiles/kiibohd.elf.dir/Macro/PartialMap/macro.c.o
tm14_guide                                        CMakeFiles/kiibohd.elf.dir/Macro/PartialMap/macro.c.o
tm15_guide                                        CMakeFiles/kiibohd.elf.dir/Macro/PartialMap/macro.c.o
tm16_guide                                        CMakeFiles/kiibohd.elf.dir/Macro/PartialMap/macro.c.o
tm17_guide                                        CMakeFiles/kiibohd.elf.dir/Macro/PartialMap/macro.c.o
tm18_guide                                        CMakeFiles/kiibohd.elf.dir/Macro/PartialMap/macro.c.o
tm19_guide                                        CMakeFiles/kiibohd.elf.dir/Macro/PartialMap/macro.c.o
tm1_guide                                         CMakeFiles/kiibohd.elf.dir/Macro/PartialMap/macro.c.o
tm20_guide                                        CMakeFiles/kiibohd.elf.dir/Macro/PartialMap/macro.c.o
tm21_guide                                        CMakeFiles/kiibohd.elf.dir/Macro/PartialMap/macro.c.o
tm22_guide                                        CMakeFiles/kiibohd.elf.dir/Macro/PartialMap/macro.c.o
tm23_guide                                        CMakeFiles/kiibohd.elf.dir/Macro/PartialMap/macro.c.o
tm24_guide                                        CMakeFiles/kiibohd.elf.dir/Macro/PartialMap/macro.c.o
tm25_guide                                        CMakeFiles/kiibohd.elf.dir/Macro/PartialMap/macro.c.o
tm26_guide                                        CMakeFiles/kiibohd.elf.dir/Macro/PartialMap/macro.c.o
tm27_guide                                        CMakeFiles/kiibohd.elf.dir/Macro/PartialMap/macro.c.o
tm28_guide                                        CMakeFiles/kiibohd.elf.dir/Macro/PartialMap/macro.c.o
tm29_guide                                        CMakeFiles/kiibohd.elf.dir/Macro/PartialMap/macro.c.o
tm2_guide                                         CMakeFiles/kiibohd.elf.dir/Macro/PartialMap/macro.c.o
tm30_guide                                        CMakeFiles/kiibohd.elf.dir/Macro/PartialMap/macro.c.o
tm31_guide                                        CMakeFiles/kiibohd.elf.dir/Macro/PartialMap/macro.c.o
tm32_guide                                        CMakeFiles/kiibohd.elf.dir/Macro/PartialMap/macro.c.o
tm33_guide                                        CMakeFiles/kiibohd.elf.dir/Macro/PartialMap/macro.c.o
tm34_guide                                        CMakeFiles/kiibohd.elf.dir/Macro/PartialMap/macro.c.o
tm35_guide                                        CMakeFiles/kiibohd.elf.dir/Macro/PartialMap/macro.c.o
tm36_guide                                        CMakeFiles/kiibohd.elf.dir/Macro/PartialMap/macro.c.o
tm37_guide                                        CMakeFiles/kiibohd.elf.dir/Macro/PartialMap/macro.c.o
tm38_guide                                        CMakeFiles/kiibohd.elf.dir/Macro/PartialMap/macro.c.o
tm39_guide                                        CMakeFiles/kiibohd.elf.dir/Macro/PartialMap/macro.c.o
tm3_guide                                         CMakeFiles/kiibohd.elf.dir/Macro/PartialMap/macro.c.o
tm40_guide                                        CMakeFiles/kiibohd.elf.dir/Macro/PartialMap/macro.c.o
tm41_guide                                        CMakeFiles/kiibohd.elf.dir/Macro/PartialMap/macro.c.o
tm42_guide                                        CMakeFiles/kiibohd.elf.dir/Macro/PartialMap/macro.c.o
tm43_guide                                        CMakeFiles/kiibohd.elf.dir/Macro/PartialMap/macro.c.o
tm44_guide                                        CMakeFiles/kiibohd.elf.dir/Macro/PartialMap/macro.c.o
tm45_guide                                        CMakeFiles/kiibohd.elf.dir/Macro/PartialMap/macro.c.o
tm46_guide                                        CMakeFiles/kiibohd.elf.dir/Macro/PartialMap/macro.c.o
tm47_guide                                        CMakeFiles/kiibohd.elf.dir/Macro/PartialMap/macro.c.o
tm48_guide                                        CMakeFiles/kiibohd.elf.dir/Macro/PartialMap/macro.c.o
tm49_guide                                        CMakeFiles/kiibohd.elf.dir/Macro/PartialMap/macro.c.o
tm4_guide                                         CMakeFiles/kiibohd.elf.dir/Macro/PartialMap/macro.c.o
tm50_guide                                        CMakeFiles/kiibohd.elf.dir/Macro/PartialMap/macro.c.o
tm51_guide                                        CMakeFiles/kiibohd.elf.dir/Macro/PartialMap/macro.c.o
tm52_guide                                        CMakeFiles/kiibohd.elf.dir/Macro/PartialMap/macro.c.o
tm53_guide                                        CMakeFiles/kiibohd.elf.dir/Macro/PartialMap/macro.c.o
tm54_guide                                        CMakeFiles/kiibohd.elf.dir/Macro/PartialMap/macro.c.o
tm55_guide                                        CMakeFiles/kiibohd.elf.dir/Macro/PartialMap/macro.c.o
tm56_guide                                        CMakeFiles/kiibohd.elf.dir/Macro/PartialMap/macro.c.o
tm57_guide                                        CMakeFiles/kiibohd.elf.dir/Macro/PartialMap/macro.c.o
tm58_guide                                        CMakeFiles/kiibohd.elf.dir/Macro/PartialMap/macro.c.o
tm59_guide                                        CMakeFiles/kiibohd.elf.dir/Macro/PartialMap/macro.c.o
tm5_guide                                         CMakeFiles/kiibohd.elf.dir/Macro/PartialMap/macro.c.o
tm60_guide                                        CMakeFiles/kiibohd.elf.dir/Macro/PartialMap/macro.c.o
tm61_guide                                        CMakeFiles/kiibohd.elf.dir/Macro/PartialMap/macro.c.o
tm62_guide                                        CMakeFiles/kiibohd.elf.dir/Macro/PartialMap/macro.c.o
tm63_guide                                        CMakeFiles/kiibohd.elf.dir/Macro/PartialMap/macro.c.o
tm64_guide                                        CMakeFiles/kiibohd.elf.dir/Macro/PartialMap/macro.c.o
tm65_guide                                        CMakeFiles/kiibohd.elf.dir/Macro/PartialMap/macro.c.o
tm66_guide                                        CMakeFiles/kiibohd.elf.dir/Macro/PartialMap/macro.c.o
tm67_guide                                        CMakeFiles/kiibohd.elf.dir/Macro/PartialMap/macro.c.o
tm68_guide                                        CMakeFiles/kiibohd.elf.dir/Macro/PartialMap/macro.c.o
tm69_guide                                        CMakeFiles/kiibohd.elf.dir/Macro/PartialMap/macro.c.o
tm6_guide                                         CMakeFiles/kiibohd.elf.dir/Macro/PartialMap/macro.c.o
tm70_guide                                        CMakeFiles/kiibohd.elf.dir/Macro/PartialMap/macro.c.o
tm71_guide                                        CMakeFiles/kiibohd.elf.dir/Macro/PartialMap/macro.c.o
tm72_guide                                        CMakeFiles/kiibohd.elf.dir/Macro/PartialMap/macro.c.o
tm73_guide                                        CMakeFiles/kiibohd.elf.dir/Macro/PartialMap/macro.c.o
tm74_guide                                        CMakeFiles/kiibohd.elf.dir/Macro/PartialMap/macro.c.o
tm75_guide                                        CMakeFiles/kiibohd.elf.dir/Macro/PartialMap/macro.c.o
tm76_guide                                        CMakeFiles/kiibohd.elf.dir/Macro/PartialMap/macro.c.o
tm77_guide                                        CMakeFiles/kiibohd.elf.dir/Macro/PartialMap/macro.c.o
tm78_guide                                        CMakeFiles/kiibohd.elf.dir/Macro/PartialMap/macro.c.o
tm79_guide                                        CMakeFiles/kiibohd.elf.dir/Macro/PartialMap/macro.c.o
tm7_guide                                         CMakeFiles/kiibohd.elf.dir/Macro/PartialMap/macro.c.o
tm80_guide                                        CMakeFiles/kiibohd.elf.dir/Macro/PartialMap/macro.c.o
tm81_guide                                        CMakeFiles/kiibohd.elf.dir/Macro/PartialMap/macro.c.o
tm82_guide                                        CMakeFiles/kiibohd.elf.dir/Macro/PartialMap/macro.c.o
tm83_guide                                        CMakeFiles/kiibohd.elf.dir/Macro/PartialMap/macro.c.o
tm84_guide                                        CMakeFiles/kiibohd.elf.dir/Macro/PartialMap/macro.c.o
tm85_guide                                        CMakeFiles/kiibohd.elf.dir/Macro/PartialMap/macro.c.o
tm86_guide                                        CMakeFiles/kiibohd.elf.dir/Macro/PartialMap/macro.c.o
tm87_guide                                        CMakeFiles/kiibohd.elf.dir/Macro/PartialMap/macro.c.o
tm88_guide                                        CMakeFiles/kiibohd.elf.dir/Macro/PartialMap/macro.c.o
tm89_guide                                        CMakeFiles/kiibohd.elf.dir/Macro/PartialMap/macro.c.o
tm8_guide                                         CMakeFiles/kiibohd.elf.dir/Macro/PartialMap/macro.c.o
tm90_guide                                        CMakeFiles/kiibohd.elf.dir/Macro/PartialMap/macro.c.o
tm91_guide                                        CMakeFiles/kiibohd.elf.dir/Macro/PartialMap/macro.c.o
tm92_guide                                        CMakeFiles/kiibohd.elf.dir/Macro/PartialMap/macro.c.o
tm93_guide                                        CMakeFiles/kiibohd.elf.dir/Macro/PartialMap/macro.c.o
tm94_guide                                        CMakeFiles/kiibohd.elf.dir/Macro/PartialMap/macro.c.o
tm95_guide                                        CMakeFiles/kiibohd.elf.dir/Macro/PartialMap/macro.c.o
tm96_guide                                        CMakeFiles/kiibohd.elf.dir/Macro/PartialMap/macro.c.o
tm97_guide                                        CMakeFiles/kiibohd.elf.dir/Macro/PartialMap/macro.c.o
tm98_guide                                        CMakeFiles/kiibohd.elf.dir/Macro/PartialMap/macro.c.o
tm99_guide                                        CMakeFiles/kiibohd.elf.dir/Macro/PartialMap/macro.c.o
tm9_guide                                         CMakeFiles/kiibohd.elf.dir/Macro/PartialMap/macro.c.o
tsi0_isr                                          CMakeFiles/kiibohd.elf.dir/Lib/mk20dx.c.o
uart0_error_isr                                   CMakeFiles/kiibohd.elf.dir/Lib/mk20dx.c.o
uart0_lon_isr                                     CMakeFiles/kiibohd.elf.dir/Lib/mk20dx.c.o
uart0_status_isr                                  CMakeFiles/kiibohd.elf.dir/Lib/mk20dx.c.o
uart1_error_isr                                   CMakeFiles/kiibohd.elf.dir/Lib/mk20dx.c.o
uart1_status_isr                                  CMakeFiles/kiibohd.elf.dir/Lib/mk20dx.c.o
uart2_error_isr                                   CMakeFiles/kiibohd.elf.dir/Lib/mk20dx.c.o
uart2_status_isr                                  CMakeFiles/kiibohd.elf.dir/Lib/mk20dx.c.o
uart3_error_isr                                   CMakeFiles/kiibohd.elf.dir/Lib/mk20dx.c.o
uart3_status_isr                                  CMakeFiles/kiibohd.elf.dir/Lib/mk20dx.c.o
uart4_error_isr                                   CMakeFiles/kiibohd.elf.dir/Lib/mk20dx.c.o
uart4_status_isr                                  CMakeFiles/kiibohd.elf.dir/Lib/mk20dx.c.o
uart5_error_isr                                   CMakeFiles/kiibohd.elf.dir/Lib/mk20dx.c.o
uart5_status_isr                                  CMakeFiles/kiibohd.elf.dir/Lib/mk20dx.c.o
unused_isr                                        CMakeFiles/kiibohd.elf.dir/Lib/mk20dx.c.o
usage_fault_default_isr                           CMakeFiles/kiibohd.elf.dir/Lib/mk20dx.c.o
usage_fault_isr                                   CMakeFiles/kiibohd.elf.dir/Lib/mk20dx.c.o
usbInitTimeCLIDict_DescEntry                      CMakeFiles/kiibohd.elf.dir/Output/pjrcUSB/output_com.c.o
usb_bMaxPower                                     CMakeFiles/kiibohd.elf.dir/Output/pjrcUSB/arm/usb_desc.c.o
                                                  CMakeFiles/kiibohd.elf.dir/Output/pjrcUSB/arm/usb_dev.c.o
usb_buffer_memory                                 CMakeFiles/kiibohd.elf.dir/Output/pjrcUSB/arm/usb_mem.c.o
usb_cdc_line_coding                               CMakeFiles/kiibohd.elf.dir/Output/pjrcUSB/arm/usb_serial.c.o
                                                  CMakeFiles/kiibohd.elf.dir/Output/pjrcUSB/arm/usb_dev.c.o
usb_cdc_line_rtsdtr                               CMakeFiles/kiibohd.elf.dir/Output/pjrcUSB/arm/usb_serial.c.o
                                                  CMakeFiles/kiibohd.elf.dir/Output/pjrcUSB/arm/usb_dev.c.o
usb_cdc_transmit_flush_timer                      CMakeFiles/kiibohd.elf.dir/Output/pjrcUSB/arm/usb_serial.c.o
                                                  CMakeFiles/kiibohd.elf.dir/Output/pjrcUSB/arm/usb_dev.c.o
usb_charge_isr                                    CMakeFiles/kiibohd.elf.dir/Lib/mk20dx.c.o
usb_configuration                                 CMakeFiles/kiibohd.elf.dir/Output/pjrcUSB/arm/usb_dev.c.o
                                                  CMakeFiles/kiibohd.elf.dir/Output/pjrcUSB/arm/usb_serial.c.o
                                                  CMakeFiles/kiibohd.elf.dir/Output/pjrcUSB/arm/usb_mouse.c.o
                                                  CMakeFiles/kiibohd.elf.dir/Output/pjrcUSB/arm/usb_mem.c.o
                                                  CMakeFiles/kiibohd.elf.dir/Output/pjrcUSB/arm/usb_keyboard.c.o
usb_configured                                    CMakeFiles/kiibohd.elf.dir/Output/pjrcUSB/arm/usb_dev.c.o
usb_descriptor_list                               CMakeFiles/kiibohd.elf.dir/Output/pjrcUSB/arm/usb_desc.c.o
                                                  CMakeFiles/kiibohd.elf.dir/Output/pjrcUSB/arm/usb_dev.c.o
usb_device_check                                  CMakeFiles/kiibohd.elf.dir/Output/pjrcUSB/arm/usb_dev.c.o
                                                  CMakeFiles/kiibohd.elf.dir/Output/pjrcUSB/output_com.c.o
usb_device_reload                                 CMakeFiles/kiibohd.elf.dir/Output/pjrcUSB/arm/usb_dev.c.o
                                                  CMakeFiles/kiibohd.elf.dir/Output/pjrcUSB/output_com.c.o
usb_endpoint_config_table                         CMakeFiles/kiibohd.elf.dir/Output/pjrcUSB/arm/usb_desc.c.o
                                                  CMakeFiles/kiibohd.elf.dir/Output/pjrcUSB/arm/usb_dev.c.o
usb_free                                          CMakeFiles/kiibohd.elf.dir/Output/pjrcUSB/arm/usb_mem.c.o
                                                  CMakeFiles/kiibohd.elf.dir/Output/pjrcUSB/arm/usb_serial.c.o
                                                  CMakeFiles/kiibohd.elf.dir/Output/pjrcUSB/arm/usb_dev.c.o
usb_init                                          CMakeFiles/kiibohd.elf.dir/Output/pjrcUSB/arm/usb_dev.c.o
                                                  CMakeFiles/kiibohd.elf.dir/Output/pjrcUSB/output_com.c.o
usb_isr                                           CMakeFiles/kiibohd.elf.dir/Output/pjrcUSB/arm/usb_dev.c.o
                                                  CMakeFiles/kiibohd.elf.dir/Lib/mk20dx.c.o
usb_keyboard_send                                 CMakeFiles/kiibohd.elf.dir/Output/pjrcUSB/arm/usb_keyboard.c.o
                                                  CMakeFiles/kiibohd.elf.dir/Output/pjrcUSB/output_com.c.o
usb_malloc                                        CMakeFiles/kiibohd.elf.dir/Output/pjrcUSB/arm/usb_mem.c.o
                                                  CMakeFiles/kiibohd.elf.dir/Output/pjrcUSB/arm/usb_serial.c.o
                                                  CMakeFiles/kiibohd.elf.dir/Output/pjrcUSB/arm/usb_mouse.c.o
                                                  CMakeFiles/kiibohd.elf.dir/Output/pjrcUSB/arm/usb_keyboard.c.o
                                                  CMakeFiles/kiibohd.elf.dir/Output/pjrcUSB/arm/usb_dev.c.o
usb_mouse_buttons_state                           CMakeFiles/kiibohd.elf.dir/Output/pjrcUSB/arm/usb_mouse.c.o
usb_mouse_move                                    CMakeFiles/kiibohd.elf.dir/Output/pjrcUSB/arm/usb_mouse.c.o
usb_mouse_position                                CMakeFiles/kiibohd.elf.dir/Output/pjrcUSB/arm/usb_mouse.c.o
usb_mouse_screen_size                             CMakeFiles/kiibohd.elf.dir/Output/pjrcUSB/arm/usb_mouse.c.o
usb_mouse_send                                    CMakeFiles/kiibohd.elf.dir/Output/pjrcUSB/arm/usb_mouse.c.o
                                                  CMakeFiles/kiibohd.elf.dir/Output/pjrcUSB/output_com.c.o
usb_reboot_timer                                  CMakeFiles/kiibohd.elf.dir/Output/pjrcUSB/arm/usb_dev.c.o
usb_reinit                                        CMakeFiles/kiibohd.elf.dir/Output/pjrcUSB/arm/usb_dev.c.o
usb_resume                                        CMakeFiles/kiibohd.elf.dir/Output/pjrcUSB/arm/usb_dev.c.o
                                                  CMakeFiles/kiibohd.elf.dir/Output/pjrcUSB/arm/usb_keyboard.c.o
usb_rx                                            CMakeFiles/kiibohd.elf.dir/Output/pjrcUSB/arm/usb_dev.c.o
                                                  CMakeFiles/kiibohd.elf.dir/Output/pjrcUSB/arm/usb_serial.c.o
usb_rx_byte_count_data                            CMakeFiles/kiibohd.elf.dir/Output/pjrcUSB/arm/usb_dev.c.o
                                                  CMakeFiles/kiibohd.elf.dir/Output/pjrcUSB/arm/usb_serial.c.o
usb_rx_memory                                     CMakeFiles/kiibohd.elf.dir/Output/pjrcUSB/arm/usb_dev.c.o
                                                  CMakeFiles/kiibohd.elf.dir/Output/pjrcUSB/arm/usb_mem.c.o
usb_rx_memory_needed                              CMakeFiles/kiibohd.elf.dir/Output/pjrcUSB/arm/usb_dev.c.o
                                                  CMakeFiles/kiibohd.elf.dir/Output/pjrcUSB/arm/usb_mem.c.o
usb_serial_available                              CMakeFiles/kiibohd.elf.dir/Output/pjrcUSB/arm/usb_serial.c.o
                                                  CMakeFiles/kiibohd.elf.dir/Output/pjrcUSB/output_com.c.o
usb_serial_flush_callback                         CMakeFiles/kiibohd.elf.dir/Output/pjrcUSB/arm/usb_serial.c.o
                                                  CMakeFiles/kiibohd.elf.dir/Output/pjrcUSB/arm/usb_dev.c.o
usb_serial_flush_input                            CMakeFiles/kiibohd.elf.dir/Output/pjrcUSB/arm/usb_serial.c.o
usb_serial_flush_output                           CMakeFiles/kiibohd.elf.dir/Output/pjrcUSB/arm/usb_serial.c.o
usb_serial_getchar                                CMakeFiles/kiibohd.elf.dir/Output/pjrcUSB/arm/usb_serial.c.o
                                                  CMakeFiles/kiibohd.elf.dir/Output/pjrcUSB/output_com.c.o
usb_serial_peekchar                               CMakeFiles/kiibohd.elf.dir/Output/pjrcUSB/arm/usb_serial.c.o
usb_serial_putchar                                CMakeFiles/kiibohd.elf.dir/Output/pjrcUSB/arm/usb_serial.c.o
                                                  CMakeFiles/kiibohd.elf.dir/Output/pjrcUSB/output_com.c.o
usb_serial_read                                   CMakeFiles/kiibohd.elf.dir/Output/pjrcUSB/arm/usb_serial.c.o
usb_serial_write                                  CMakeFiles/kiibohd.elf.dir/Output/pjrcUSB/arm/usb_serial.c.o
                                                  CMakeFiles/kiibohd.elf.dir/Output/pjrcUSB/output_com.c.o
usb_set_config_descriptor_size                    CMakeFiles/kiibohd.elf.dir/Output/pjrcUSB/arm/usb_desc.c.o
                                                  CMakeFiles/kiibohd.elf.dir/Output/pjrcUSB/arm/usb_dev.c.o
usb_string_cdc_data_name                          CMakeFiles/kiibohd.elf.dir/Output/pjrcUSB/arm/usb_desc.c.o
usb_string_cdc_status_name                        CMakeFiles/kiibohd.elf.dir/Output/pjrcUSB/arm/usb_desc.c.o
usb_string_keyboard_name                          CMakeFiles/kiibohd.elf.dir/Output/pjrcUSB/arm/usb_desc.c.o
usb_string_manufacturer_name                      CMakeFiles/kiibohd.elf.dir/Output/pjrcUSB/arm/usb_desc.c.o
usb_string_manufacturer_name_default              CMakeFiles/kiibohd.elf.dir/Output/pjrcUSB/arm/usb_desc.c.o
usb_string_mouse_name                             CMakeFiles/kiibohd.elf.dir/Output/pjrcUSB/arm/usb_desc.c.o
usb_string_nkro_keyboard_name                     CMakeFiles/kiibohd.elf.dir/Output/pjrcUSB/arm/usb_desc.c.o
usb_string_product_name                           CMakeFiles/kiibohd.elf.dir/Output/pjrcUSB/arm/usb_desc.c.o
usb_string_product_name_default                   CMakeFiles/kiibohd.elf.dir/Output/pjrcUSB/arm/usb_desc.c.o
usb_string_serial_number                          CMakeFiles/kiibohd.elf.dir/Output/pjrcUSB/arm/usb_desc.c.o
usb_string_serial_number_default                  CMakeFiles/kiibohd.elf.dir/Output/pjrcUSB/arm/usb_desc.c.o
                                                  CMakeFiles/kiibohd.elf.dir/Output/pjrcUSB/arm/usb_dev.c.o
usb_string_sys_ctrl_name                          CMakeFiles/kiibohd.elf.dir/Output/pjrcUSB/arm/usb_desc.c.o
usb_tx                                            CMakeFiles/kiibohd.elf.dir/Output/pjrcUSB/arm/usb_dev.c.o
                                                  CMakeFiles/kiibohd.elf.dir/Output/pjrcUSB/arm/usb_serial.c.o
                                                  CMakeFiles/kiibohd.elf.dir/Output/pjrcUSB/arm/usb_mouse.c.o
                                                  CMakeFiles/kiibohd.elf.dir/Output/pjrcUSB/arm/usb_keyboard.c.o
usb_tx_byte_count                                 CMakeFiles/kiibohd.elf.dir/Output/pjrcUSB/arm/usb_dev.c.o
usb_tx_packet_count                               CMakeFiles/kiibohd.elf.dir/Output/pjrcUSB/arm/usb_dev.c.o
                                                  CMakeFiles/kiibohd.elf.dir/Output/pjrcUSB/arm/usb_serial.c.o
                                                  CMakeFiles/kiibohd.elf.dir/Output/pjrcUSB/arm/usb_mouse.c.o
                                                  CMakeFiles/kiibohd.elf.dir/Output/pjrcUSB/arm/usb_keyboard.c.o
versionCLIDict_DescEntry                          CMakeFiles/kiibohd.elf.dir/Debug/cli/cli.c.o
wakeup_isr                                        CMakeFiles/kiibohd.elf.dir/Lib/mk20dx.c.o
watchdog_isr                                      CMakeFiles/kiibohd.elf.dir/Lib/mk20dx.c.o
yield                                             CMakeFiles/kiibohd.elf.dir/Lib/delay.c.o
                                                  CMakeFiles/kiibohd.elf.dir/Output/pjrcUSB/arm/usb_serial.c.o
                                                  CMakeFiles/kiibohd.elf.dir/Output/pjrcUSB/arm/usb_mouse.c.o
                                                  CMakeFiles/kiibohd.elf.dir/Output/pjrcUSB/arm/usb_keyboard.c.o
